---
triple:          'arm64-apple-darwin'
binary-path:     '/Users/folaosibo/Documents/PersonalProjects/BankManager/main'
relocations:
  - { offsetInCU: 0x52, offset: 0x52, size: 0x8, addend: 0x0, symName: _customerAccountDatabase, symObjAddr: 0x41B68, symBinAddr: 0x100018000, symSize: 0x0 }
  - { offsetInCU: 0x6267, offset: 0x6267, size: 0x8, addend: 0x0, symName: __ZNSt3__124__put_character_sequenceB8ue170006IcNS_11char_traitsIcEEEERNS_13basic_ostreamIT_T0_EES7_PKS4_m, symObjAddr: 0x29A0, symBinAddr: 0x100006958, symSize: 0x1F4 }
  - { offsetInCU: 0x7BB4, offset: 0x7BB4, size: 0x8, addend: 0x0, symName: __ZNSt3__15beginB8ue170006INS_4listINS_4pairIiNS1_INS2_INS_12basic_stringIcNS_11char_traitsIcEENS_9allocatorIcEEEES8_EENS6_IS9_EEEEEENS6_ISC_EEEEEENT_8iteratorERSF_, symObjAddr: 0x6A4, symBinAddr: 0x10000465C, symSize: 0x2C }
  - { offsetInCU: 0x7BE9, offset: 0x7BE9, size: 0x8, addend: 0x0, symName: __ZNSt3__1neB8ue170006ERKNS_15__list_iteratorINS_4pairIiNS_4listINS1_INS_12basic_stringIcNS_11char_traitsIcEENS_9allocatorIcEEEES8_EENS6_IS9_EEEEEEPvEESG_, symObjAddr: 0x6D0, symBinAddr: 0x100004688, symSize: 0x34 }
  - { offsetInCU: 0x7C26, offset: 0x7C26, size: 0x8, addend: 0x0, symName: __ZNSt3__13endB8ue170006INS_4listINS_4pairIiNS1_INS2_INS_12basic_stringIcNS_11char_traitsIcEENS_9allocatorIcEEEES8_EENS6_IS9_EEEEEENS6_ISC_EEEEEENT_8iteratorERSF_, symObjAddr: 0x704, symBinAddr: 0x1000046BC, symSize: 0x2C }
  - { offsetInCU: 0x7C5B, offset: 0x7C5B, size: 0x8, addend: 0x0, symName: __ZNSt3__1lsB8ue170006INS_11char_traitsIcEEEERNS_13basic_ostreamIcT_EES6_PKc, symObjAddr: 0x760, symBinAddr: 0x100004718, symSize: 0x48 }
  - { offsetInCU: 0x7CA1, offset: 0x7CA1, size: 0x8, addend: 0x0, symName: __ZNSt3__14endlB8ue170006IcNS_11char_traitsIcEEEERNS_13basic_ostreamIT_T0_EES7_, symObjAddr: 0x7D4, symBinAddr: 0x10000478C, symSize: 0x58 }
  - { offsetInCU: 0x7CE1, offset: 0x7CE1, size: 0x8, addend: 0x0, symName: __ZNSt3__15beginB8ue170006INS_4listINS_4pairINS_12basic_stringIcNS_11char_traitsIcEENS_9allocatorIcEEEES8_EENS6_IS9_EEEEEENT_8iteratorERSC_, symObjAddr: 0xFC8, symBinAddr: 0x100004F80, symSize: 0x2C }
  - { offsetInCU: 0x7D16, offset: 0x7D16, size: 0x8, addend: 0x0, symName: __ZNSt3__1neB8ue170006ERKNS_15__list_iteratorINS_4pairINS_12basic_stringIcNS_11char_traitsIcEENS_9allocatorIcEEEES7_EEPvEESC_, symObjAddr: 0xFF4, symBinAddr: 0x100004FAC, symSize: 0x34 }
  - { offsetInCU: 0x7D53, offset: 0x7D53, size: 0x8, addend: 0x0, symName: __ZNSt3__13endB8ue170006INS_4listINS_4pairINS_12basic_stringIcNS_11char_traitsIcEENS_9allocatorIcEEEES8_EENS6_IS9_EEEEEENT_8iteratorERSC_, symObjAddr: 0x1028, symBinAddr: 0x100004FE0, symSize: 0x2C }
  - { offsetInCU: 0x7D88, offset: 0x7D88, size: 0x8, addend: 0x0, symName: __ZNSt3__1lsB8ue170006IcNS_11char_traitsIcEENS_9allocatorIcEEEERNS_13basic_ostreamIT_T0_EES9_RKNS_12basic_stringIS6_S7_T1_EE, symObjAddr: 0x1054, symBinAddr: 0x10000500C, symSize: 0x4C }
  - { offsetInCU: 0x7DE0, offset: 0x7DE0, size: 0x8, addend: 0x0, symName: __ZNSt3__1eqB8ue170006IcNS_11char_traitsIcEENS_9allocatorIcEEEEbRKNS_12basic_stringIT_T0_T1_EEPKS6_, symObjAddr: 0x1554, symBinAddr: 0x10000550C, symSize: 0xC0 }
  - { offsetInCU: 0x7E47, offset: 0x7E47, size: 0x8, addend: 0x0, symName: __ZNSt3__1eqB8ue170006INS_9allocatorIcEEEEbRKNS_12basic_stringIcNS_11char_traitsIcEET_EES9_, symObjAddr: 0x1614, symBinAddr: 0x1000055CC, symSize: 0x148 }
  - { offsetInCU: 0x7EED, offset: 0x7EED, size: 0x8, addend: 0x0, symName: __ZNSt3__130__libcpp_is_constant_evaluatedB8ue170006Ev, symObjAddr: 0x2000, symBinAddr: 0x100005FB8, symSize: 0xC }
  - { offsetInCU: 0x7F0A, offset: 0x7F0A, size: 0x8, addend: 0x0, symName: __ZNSt3__119__libcpp_deallocateB8ue170006EPvmm, symObjAddr: 0x200C, symBinAddr: 0x100005FC4, symSize: 0x30 }
  - { offsetInCU: 0x7F52, offset: 0x7F52, size: 0x8, addend: 0x0, symName: __ZNSt3__127__do_deallocate_handle_sizeB8ue170006IJEEEvPvmDpT_, symObjAddr: 0x203C, symBinAddr: 0x100005FF4, symSize: 0x28 }
  - { offsetInCU: 0x7F90, offset: 0x7F90, size: 0x8, addend: 0x0, symName: __ZNSt3__124__libcpp_operator_deleteB8ue170006IJPvEEEvDpT_, symObjAddr: 0x2064, symBinAddr: 0x10000601C, symSize: 0x24 }
  - { offsetInCU: 0x7FF8, offset: 0x7FF8, size: 0x8, addend: 0x0, symName: __ZNSt3__1eqB8ue170006ERKNS_15__list_iteratorINS_4pairIiNS_4listINS1_INS_12basic_stringIcNS_11char_traitsIcEENS_9allocatorIcEEEES8_EENS6_IS9_EEEEEEPvEESG_, symObjAddr: 0x293C, symBinAddr: 0x1000068F4, symSize: 0x30 }
  - { offsetInCU: 0x8068, offset: 0x8068, size: 0x8, addend: 0x0, symName: __ZNSt3__116__pad_and_outputB8ue170006IcNS_11char_traitsIcEEEENS_19ostreambuf_iteratorIT_T0_EES6_PKS4_S8_S8_RNS_8ios_baseES4_, symObjAddr: 0x2BF8, symBinAddr: 0x100006BB0, symSize: 0x248 }
  - { offsetInCU: 0x8137, offset: 0x8137, size: 0x8, addend: 0x0, symName: __ZNSt3__112__to_addressB8ue170006IKcEEPT_S3_, symObjAddr: 0x3168, symBinAddr: 0x100007120, symSize: 0x14 }
  - { offsetInCU: 0x819F, offset: 0x819F, size: 0x8, addend: 0x0, symName: __ZNSt3__19use_facetB8ue170006INS_5ctypeIcEEEERKT_RKNS_6localeE, symObjAddr: 0x3440, symBinAddr: 0x1000073F8, symSize: 0x2C }
  - { offsetInCU: 0x866C, offset: 0x866C, size: 0x8, addend: 0x0, symName: __ZNSt3__118__constexpr_strlenB8ue170006EPKc, symObjAddr: 0x34D8, symBinAddr: 0x100007490, symSize: 0x24 }
  - { offsetInCU: 0x86B6, offset: 0x86B6, size: 0x8, addend: 0x0, symName: __ZNSt3__117__libcpp_allocateB8ue170006Emm, symObjAddr: 0x386C, symBinAddr: 0x100007824, symSize: 0x28 }
  - { offsetInCU: 0x86F3, offset: 0x86F3, size: 0x8, addend: 0x0, symName: __ZNSt3__121__libcpp_operator_newB8ue170006IJmEEEPvDpT_, symObjAddr: 0x38AC, symBinAddr: 0x100007864, symSize: 0x24 }
  - { offsetInCU: 0x872C, offset: 0x872C, size: 0x8, addend: 0x0, symName: __ZNSt3__1neB8ue170006ERKNS_21__list_const_iteratorINS_4pairINS_12basic_stringIcNS_11char_traitsIcEENS_9allocatorIcEEEES7_EEPvEESC_, symObjAddr: 0x3CB8, symBinAddr: 0x100007C70, symSize: 0x34 }
  - { offsetInCU: 0x8769, offset: 0x8769, size: 0x8, addend: 0x0, symName: __ZNSt3__1eqB8ue170006ERKNS_21__list_const_iteratorINS_4pairINS_12basic_stringIcNS_11char_traitsIcEENS_9allocatorIcEEEES7_EEPvEESC_, symObjAddr: 0x3F38, symBinAddr: 0x100007EF0, symSize: 0x30 }
  - { offsetInCU: 0x87C4, offset: 0x87C4, size: 0x8, addend: 0x0, symName: __ZNSt3__1eqB8ue170006ERKNS_15__list_iteratorINS_4pairINS_12basic_stringIcNS_11char_traitsIcEENS_9allocatorIcEEEES7_EEPvEESC_, symObjAddr: 0x4B94, symBinAddr: 0x100008B4C, symSize: 0x30 }
  - { offsetInCU: 0x8835, offset: 0x8835, size: 0x8, addend: 0x0, symName: __ZSt28__throw_bad_array_new_lengthB8ue170006v, symObjAddr: 0x3838, symBinAddr: 0x1000077F0, symSize: 0x34 }
  - { offsetInCU: 0x8E41, offset: 0x8E41, size: 0x8, addend: 0x0, symName: _genAccNo, symObjAddr: 0x41C58, symBinAddr: 0x1000180F0, symSize: 0x0 }
  - { offsetInCU: 0x8E56, offset: 0x8E56, size: 0x8, addend: 0x0, symName: _staffAccountDatabase, symObjAddr: 0x41C60, symBinAddr: 0x1000180F8, symSize: 0x0 }
  - { offsetInCU: 0x8E6B, offset: 0x8E6B, size: 0x8, addend: 0x0, symName: _genStaffAccNo, symObjAddr: 0x41D50, symBinAddr: 0x1000181E8, symSize: 0x0 }
  - { offsetInCU: 0xB27F, offset: 0xB27F, size: 0x8, addend: 0x0, symName: __ZN8AccountsC2Ev, symObjAddr: 0x0, symBinAddr: 0x100003FB8, symSize: 0xD8 }
  - { offsetInCU: 0xB2AA, offset: 0xB2AA, size: 0x8, addend: 0x0, symName: __ZNSt3__14listINS_4pairIiNS0_INS1_INS_12basic_stringIcNS_11char_traitsIcEENS_9allocatorIcEEEES7_EENS5_IS8_EEEEEENS5_ISB_EEEC1B8ue170006Ev, symObjAddr: 0xD8, symBinAddr: 0x100004090, symSize: 0x2C }
  - { offsetInCU: 0xB2D3, offset: 0xB2D3, size: 0x8, addend: 0x0, symName: __ZNSt3__14listINS_4pairIiNS0_INS1_INS_12basic_stringIcNS_11char_traitsIcEENS_9allocatorIcEEEES7_EENS5_IS8_EEEEEENS5_ISB_EEED1Ev, symObjAddr: 0x104, symBinAddr: 0x1000040BC, symSize: 0x2C }
  - { offsetInCU: 0xB2FE, offset: 0xB2FE, size: 0x8, addend: 0x0, symName: __ZN8AccountsC1Ev, symObjAddr: 0x13C, symBinAddr: 0x1000040F4, symSize: 0x2C }
  - { offsetInCU: 0xB329, offset: 0xB329, size: 0x8, addend: 0x0, symName: __ZNK8Accounts7isEmptyEv, symObjAddr: 0x168, symBinAddr: 0x100004120, symSize: 0xBC }
  - { offsetInCU: 0xB37D, offset: 0xB37D, size: 0x8, addend: 0x0, symName: __ZNKSt3__14listINS_4pairIiNS0_INS1_INS_12basic_stringIcNS_11char_traitsIcEENS_9allocatorIcEEEES7_EENS5_IS8_EEEEEENS5_ISB_EEE4sizeB8ue170006Ev, symObjAddr: 0x224, symBinAddr: 0x1000041DC, symSize: 0x28 }
  - { offsetInCU: 0xB3A2, offset: 0xB3A2, size: 0x8, addend: 0x0, symName: __ZN8Accounts7accHashEi, symObjAddr: 0x24C, symBinAddr: 0x100004204, symSize: 0x28 }
  - { offsetInCU: 0xB3D7, offset: 0xB3D7, size: 0x8, addend: 0x0, symName: __ZN8Accounts9insertAccEiNSt3__112basic_stringIcNS0_11char_traitsIcEENS0_9allocatorIcEEEES6_S6_S6_, symObjAddr: 0x274, symBinAddr: 0x10000422C, symSize: 0x430 }
  - { offsetInCU: 0xB488, offset: 0xB488, size: 0x8, addend: 0x0, symName: __ZNKSt3__115__list_iteratorINS_4pairIiNS_4listINS1_INS_12basic_stringIcNS_11char_traitsIcEENS_9allocatorIcEEEES8_EENS6_IS9_EEEEEEPvEptB8ue170006Ev, symObjAddr: 0x730, symBinAddr: 0x1000046E8, symSize: 0x30 }
  - { offsetInCU: 0xB4AD, offset: 0xB4AD, size: 0x8, addend: 0x0, symName: __ZNSt3__113basic_ostreamIcNS_11char_traitsIcEEElsB8ue170006EPFRS3_S4_E, symObjAddr: 0x7A8, symBinAddr: 0x100004760, symSize: 0x2C }
  - { offsetInCU: 0xB4E0, offset: 0xB4E0, size: 0x8, addend: 0x0, symName: __ZNSt3__115__list_iteratorINS_4pairIiNS_4listINS1_INS_12basic_stringIcNS_11char_traitsIcEENS_9allocatorIcEEEES8_EENS6_IS9_EEEEEEPvEppB8ue170006Ei, symObjAddr: 0x82C, symBinAddr: 0x1000047E4, symSize: 0x34 }
  - { offsetInCU: 0xB520, offset: 0xB520, size: 0x8, addend: 0x0, symName: __ZNSt3__14listINS_4pairIiNS0_INS1_INS_12basic_stringIcNS_11char_traitsIcEENS_9allocatorIcEEEES7_EENS5_IS8_EEEEEENS5_ISB_EEE9push_backERKSB_, symObjAddr: 0x860, symBinAddr: 0x100004818, symSize: 0xFC }
  - { offsetInCU: 0xB574, offset: 0xB574, size: 0x8, addend: 0x0, symName: __ZNSt3__14listINS_4pairINS_12basic_stringIcNS_11char_traitsIcEENS_9allocatorIcEEEES7_EENS5_IS8_EEEC1B8ue170006Ev, symObjAddr: 0x95C, symBinAddr: 0x100004914, symSize: 0x2C }
  - { offsetInCU: 0xB59D, offset: 0xB59D, size: 0x8, addend: 0x0, symName: __ZNSt3__14pairIiNS_4listINS0_INS_12basic_stringIcNS_11char_traitsIcEENS_9allocatorIcEEEES7_EENS5_IS8_EEEEEC1B8ue170006ERKiRKSA_, symObjAddr: 0x988, symBinAddr: 0x100004940, symSize: 0x3C }
  - { offsetInCU: 0xB5E1, offset: 0xB5E1, size: 0x8, addend: 0x0, symName: __ZNSt3__14pairIiNS_4listINS0_INS_12basic_stringIcNS_11char_traitsIcEENS_9allocatorIcEEEES7_EENS5_IS8_EEEEED1Ev, symObjAddr: 0x9C4, symBinAddr: 0x10000497C, symSize: 0x2C }
  - { offsetInCU: 0xB60C, offset: 0xB60C, size: 0x8, addend: 0x0, symName: __ZNSt3__14listINS_4pairINS_12basic_stringIcNS_11char_traitsIcEENS_9allocatorIcEEEES7_EENS5_IS8_EEED1Ev, symObjAddr: 0x9F0, symBinAddr: 0x1000049A8, symSize: 0x2C }
  - { offsetInCU: 0xB638, offset: 0xB638, size: 0x8, addend: 0x0, symName: __ZNSt3__14listINS_4pairIiNS0_INS1_INS_12basic_stringIcNS_11char_traitsIcEENS_9allocatorIcEEEES7_EENS5_IS8_EEEEEENS5_ISB_EEE4backB8ue170006Ev, symObjAddr: 0xA1C, symBinAddr: 0x1000049D4, symSize: 0x2C }
  - { offsetInCU: 0xB65D, offset: 0xB65D, size: 0x8, addend: 0x0, symName: __ZNSt3__14listINS_4pairINS_12basic_stringIcNS_11char_traitsIcEENS_9allocatorIcEEEES7_EENS5_IS8_EEE9push_backERKS8_, symObjAddr: 0xA48, symBinAddr: 0x100004A00, symSize: 0xFC }
  - { offsetInCU: 0xB6B6, offset: 0xB6B6, size: 0x8, addend: 0x0, symName: __ZNSt3__112basic_stringIcNS_11char_traitsIcEENS_9allocatorIcEEEC1B8ue170006ILi0EEEPKc, symObjAddr: 0xB44, symBinAddr: 0x100004AFC, symSize: 0x34 }
  - { offsetInCU: 0xB6F4, offset: 0xB6F4, size: 0x8, addend: 0x0, symName: __ZNSt3__14pairINS_12basic_stringIcNS_11char_traitsIcEENS_9allocatorIcEEEES6_EC1B8ue170006ERKS6_S9_, symObjAddr: 0xB78, symBinAddr: 0x100004B30, symSize: 0x3C }
  - { offsetInCU: 0xB738, offset: 0xB738, size: 0x8, addend: 0x0, symName: __ZNSt3__14pairINS_12basic_stringIcNS_11char_traitsIcEENS_9allocatorIcEEEES6_ED1Ev, symObjAddr: 0xBB4, symBinAddr: 0x100004B6C, symSize: 0x2C }
  - { offsetInCU: 0xB763, offset: 0xB763, size: 0x8, addend: 0x0, symName: __ZN8Accounts9removeAccEi, symObjAddr: 0xBE0, symBinAddr: 0x100004B98, symSize: 0x140 }
  - { offsetInCU: 0xB7D4, offset: 0xB7D4, size: 0x8, addend: 0x0, symName: __ZNSt3__14listINS_4pairIiNS0_INS1_INS_12basic_stringIcNS_11char_traitsIcEENS_9allocatorIcEEEES7_EENS5_IS8_EEEEEENS5_ISB_EEE5eraseENS_21__list_const_iteratorISB_PvEE, symObjAddr: 0xD20, symBinAddr: 0x100004CD8, symSize: 0xA0 }
  - { offsetInCU: 0xB846, offset: 0xB846, size: 0x8, addend: 0x0, symName: __ZNSt3__121__list_const_iteratorINS_4pairIiNS_4listINS1_INS_12basic_stringIcNS_11char_traitsIcEENS_9allocatorIcEEEES8_EENS6_IS9_EEEEEEPvEC1B8ue170006ERKNS_15__list_iteratorISC_SD_EE, symObjAddr: 0xDC0, symBinAddr: 0x100004D78, symSize: 0x34 }
  - { offsetInCU: 0xB87E, offset: 0xB87E, size: 0x8, addend: 0x0, symName: __ZN8Accounts8printAccEv, symObjAddr: 0xDF4, symBinAddr: 0x100004DAC, symSize: 0x1D4 }
  - { offsetInCU: 0xB8FF, offset: 0xB8FF, size: 0x8, addend: 0x0, symName: __ZNKSt3__115__list_iteratorINS_4pairINS_12basic_stringIcNS_11char_traitsIcEENS_9allocatorIcEEEES7_EEPvEptB8ue170006Ev, symObjAddr: 0x10A0, symBinAddr: 0x100005058, symSize: 0x30 }
  - { offsetInCU: 0xB924, offset: 0xB924, size: 0x8, addend: 0x0, symName: __ZNSt3__115__list_iteratorINS_4pairINS_12basic_stringIcNS_11char_traitsIcEENS_9allocatorIcEEEES7_EEPvEppB8ue170006Ei, symObjAddr: 0x10D0, symBinAddr: 0x100005088, symSize: 0x34 }
  - { offsetInCU: 0xB964, offset: 0xB964, size: 0x8, addend: 0x0, symName: __ZN8Accounts9searchAccEi, symObjAddr: 0x1104, symBinAddr: 0x1000050BC, symSize: 0x1E0 }
  - { offsetInCU: 0xB9F3, offset: 0xB9F3, size: 0x8, addend: 0x0, symName: __ZN8Accounts12doesAccExistEi, symObjAddr: 0x12E4, symBinAddr: 0x10000529C, symSize: 0x104 }
  - { offsetInCU: 0xBA64, offset: 0xBA64, size: 0x8, addend: 0x0, symName: __ZN8Accounts17doesPasswordMatchEiNSt3__112basic_stringIcNS0_11char_traitsIcEENS0_9allocatorIcEEEE, symObjAddr: 0x13E8, symBinAddr: 0x1000053A0, symSize: 0x16C }
  - { offsetInCU: 0xBB02, offset: 0xBB02, size: 0x8, addend: 0x0, symName: __ZN8Accounts10getAccInfoEiNSt3__112basic_stringIcNS0_11char_traitsIcEENS0_9allocatorIcEEEE, symObjAddr: 0x175C, symBinAddr: 0x100005714, symSize: 0x25C }
  - { offsetInCU: 0xBB9A, offset: 0xBB9A, size: 0x8, addend: 0x0, symName: __ZNSt3__112basic_stringIcNS_11char_traitsIcEENS_9allocatorIcEEEC1B8ue170006Ev, symObjAddr: 0x19B8, symBinAddr: 0x100005970, symSize: 0x2C }
  - { offsetInCU: 0xBBC3, offset: 0xBBC3, size: 0x8, addend: 0x0, symName: __ZN8Accounts8editInfoEiNSt3__112basic_stringIcNS0_11char_traitsIcEENS0_9allocatorIcEEEES6_, symObjAddr: 0x19E4, symBinAddr: 0x10000599C, symSize: 0x150 }
  - { offsetInCU: 0xBC61, offset: 0xBC61, size: 0x8, addend: 0x0, symName: __ZNSt3__112basic_stringIcNS_11char_traitsIcEENS_9allocatorIcEEE6assignB8ue170006ERKS5_, symObjAddr: 0x1B34, symBinAddr: 0x100005AEC, symSize: 0x2C }
  - { offsetInCU: 0xBC94, offset: 0xBC94, size: 0x8, addend: 0x0, symName: __ZN8AccountsD1Ev, symObjAddr: 0x1B60, symBinAddr: 0x100005B18, symSize: 0x2C }
  - { offsetInCU: 0xBCBF, offset: 0xBCBF, size: 0x8, addend: 0x0, symName: __ZNSt3__14listINS_4pairIiNS0_INS1_INS_12basic_stringIcNS_11char_traitsIcEENS_9allocatorIcEEEES7_EENS5_IS8_EEEEEENS5_ISB_EEED2Ev, symObjAddr: 0x1B8C, symBinAddr: 0x100005B44, symSize: 0x2C }
  - { offsetInCU: 0xBCEB, offset: 0xBCEB, size: 0x8, addend: 0x0, symName: __ZNSt3__110__list_impINS_4pairIiNS_4listINS1_INS_12basic_stringIcNS_11char_traitsIcEENS_9allocatorIcEEEES8_EENS6_IS9_EEEEEENS6_ISC_EEED2Ev, symObjAddr: 0x1BB8, symBinAddr: 0x100005B70, symSize: 0x2C }
  - { offsetInCU: 0xBD16, offset: 0xBD16, size: 0x8, addend: 0x0, symName: __ZNSt3__110__list_impINS_4pairIiNS_4listINS1_INS_12basic_stringIcNS_11char_traitsIcEENS_9allocatorIcEEEES8_EENS6_IS9_EEEEEENS6_ISC_EEE5clearEv, symObjAddr: 0x1BE4, symBinAddr: 0x100005B9C, symSize: 0xF4 }
  - { offsetInCU: 0xBD85, offset: 0xBD85, size: 0x8, addend: 0x0, symName: __ZNKSt3__110__list_impINS_4pairIiNS_4listINS1_INS_12basic_stringIcNS_11char_traitsIcEENS_9allocatorIcEEEES8_EENS6_IS9_EEEEEENS6_ISC_EEE5emptyB8ue170006Ev, symObjAddr: 0x1CD8, symBinAddr: 0x100005C90, symSize: 0x34 }
  - { offsetInCU: 0xBDAA, offset: 0xBDAA, size: 0x8, addend: 0x0, symName: __ZNSt3__110__list_impINS_4pairIiNS_4listINS1_INS_12basic_stringIcNS_11char_traitsIcEENS_9allocatorIcEEEES8_EENS6_IS9_EEEEEENS6_ISC_EEE12__node_allocB8ue170006Ev, symObjAddr: 0x1D0C, symBinAddr: 0x100005CC4, symSize: 0x28 }
  - { offsetInCU: 0xBDCF, offset: 0xBDCF, size: 0x8, addend: 0x0, symName: __ZNKSt3__110__list_impINS_4pairIiNS_4listINS1_INS_12basic_stringIcNS_11char_traitsIcEENS_9allocatorIcEEEES8_EENS6_IS9_EEEEEENS6_ISC_EEE13__end_as_linkB8ue170006Ev, symObjAddr: 0x1D34, symBinAddr: 0x100005CEC, symSize: 0x58 }
  - { offsetInCU: 0xBDF4, offset: 0xBDF4, size: 0x8, addend: 0x0, symName: __ZNSt3__110__list_impINS_4pairIiNS_4listINS1_INS_12basic_stringIcNS_11char_traitsIcEENS_9allocatorIcEEEES8_EENS6_IS9_EEEEEENS6_ISC_EEE14__unlink_nodesEPNS_16__list_node_baseISC_PvEESI_, symObjAddr: 0x1D8C, symBinAddr: 0x100005D44, symSize: 0x3C }
  - { offsetInCU: 0xBE29, offset: 0xBE29, size: 0x8, addend: 0x0, symName: __ZNSt3__110__list_impINS_4pairIiNS_4listINS1_INS_12basic_stringIcNS_11char_traitsIcEENS_9allocatorIcEEEES8_EENS6_IS9_EEEEEENS6_ISC_EEE4__szB8ue170006Ev, symObjAddr: 0x1DC8, symBinAddr: 0x100005D80, symSize: 0x28 }
  - { offsetInCU: 0xBE4E, offset: 0xBE4E, size: 0x8, addend: 0x0, symName: __ZNSt3__116__list_node_baseINS_4pairIiNS_4listINS1_INS_12basic_stringIcNS_11char_traitsIcEENS_9allocatorIcEEEES8_EENS6_IS9_EEEEEEPvE9__as_nodeB8ue170006Ev, symObjAddr: 0x1DF0, symBinAddr: 0x100005DA8, symSize: 0x24 }
  - { offsetInCU: 0xBE73, offset: 0xBE73, size: 0x8, addend: 0x0, symName: __ZNSt3__116allocator_traitsINS_9allocatorINS_11__list_nodeINS_4pairIiNS_4listINS3_INS_12basic_stringIcNS_11char_traitsIcEENS1_IcEEEES9_EENS1_ISA_EEEEEEPvEEEEE7destroyB8ue170006ISD_vvEEvRSG_PT_, symObjAddr: 0x1E14, symBinAddr: 0x100005DCC, symSize: 0x28 }
  - { offsetInCU: 0xBEAE, offset: 0xBEAE, size: 0x8, addend: 0x0, symName: __ZNSt3__116allocator_traitsINS_9allocatorINS_11__list_nodeINS_4pairIiNS_4listINS3_INS_12basic_stringIcNS_11char_traitsIcEENS1_IcEEEES9_EENS1_ISA_EEEEEEPvEEEEE10deallocateB8ue170006ERSG_PSF_m, symObjAddr: 0x1E3C, symBinAddr: 0x100005DF4, symSize: 0x34 }
  - { offsetInCU: 0xBEF0, offset: 0xBEF0, size: 0x8, addend: 0x0, symName: __ZNKSt3__110__list_impINS_4pairIiNS_4listINS1_INS_12basic_stringIcNS_11char_traitsIcEENS_9allocatorIcEEEES8_EENS6_IS9_EEEEEENS6_ISC_EEE4__szB8ue170006Ev, symObjAddr: 0x1E70, symBinAddr: 0x100005E28, symSize: 0x28 }
  - { offsetInCU: 0xBF15, offset: 0xBF15, size: 0x8, addend: 0x0, symName: __ZNKSt3__117__compressed_pairImNS_9allocatorINS_11__list_nodeINS_4pairIiNS_4listINS3_INS_12basic_stringIcNS_11char_traitsIcEENS1_IcEEEES9_EENS1_ISA_EEEEEEPvEEEEE5firstB8ue170006Ev, symObjAddr: 0x1E98, symBinAddr: 0x100005E50, symSize: 0x24 }
  - { offsetInCU: 0xBF3A, offset: 0xBF3A, size: 0x8, addend: 0x0, symName: __ZNKSt3__122__compressed_pair_elemImLi0ELb0EE5__getB8ue170006Ev, symObjAddr: 0x1EBC, symBinAddr: 0x100005E74, symSize: 0x14 }
  - { offsetInCU: 0xBF5F, offset: 0xBF5F, size: 0x8, addend: 0x0, symName: __ZNSt3__117__compressed_pairImNS_9allocatorINS_11__list_nodeINS_4pairIiNS_4listINS3_INS_12basic_stringIcNS_11char_traitsIcEENS1_IcEEEES9_EENS1_ISA_EEEEEEPvEEEEE6secondB8ue170006Ev, symObjAddr: 0x1ED0, symBinAddr: 0x100005E88, symSize: 0x24 }
  - { offsetInCU: 0xBF84, offset: 0xBF84, size: 0x8, addend: 0x0, symName: __ZNSt3__122__compressed_pair_elemINS_9allocatorINS_11__list_nodeINS_4pairIiNS_4listINS3_INS_12basic_stringIcNS_11char_traitsIcEENS1_IcEEEES9_EENS1_ISA_EEEEEEPvEEEELi1ELb1EE5__getB8ue170006Ev, symObjAddr: 0x1EF4, symBinAddr: 0x100005EAC, symSize: 0x14 }
  - { offsetInCU: 0xBFA9, offset: 0xBFA9, size: 0x8, addend: 0x0, symName: __ZNSt3__126__list_node_pointer_traitsINS_4pairIiNS_4listINS1_INS_12basic_stringIcNS_11char_traitsIcEENS_9allocatorIcEEEES8_EENS6_IS9_EEEEEEPvE26__unsafe_link_pointer_castB8ue170006EPNS_16__list_node_baseISC_SD_EE, symObjAddr: 0x1F08, symBinAddr: 0x100005EC0, symSize: 0x14 }
  - { offsetInCU: 0xBFCD, offset: 0xBFCD, size: 0x8, addend: 0x0, symName: __ZNSt3__116__list_node_baseINS_4pairIiNS_4listINS1_INS_12basic_stringIcNS_11char_traitsIcEENS_9allocatorIcEEEES8_EENS6_IS9_EEEEEEPvE6__selfB8ue170006Ev, symObjAddr: 0x1F1C, symBinAddr: 0x100005ED4, symSize: 0x24 }
  - { offsetInCU: 0xBFF7, offset: 0xBFF7, size: 0x8, addend: 0x0, symName: __ZNSt3__114pointer_traitsIPNS_16__list_node_baseINS_4pairIiNS_4listINS2_INS_12basic_stringIcNS_11char_traitsIcEENS_9allocatorIcEEEES9_EENS7_ISA_EEEEEEPvEEE10pointer_toB8ue170006ERSF_, symObjAddr: 0x1F40, symBinAddr: 0x100005EF8, symSize: 0x14 }
  - { offsetInCU: 0xC01A, offset: 0xC01A, size: 0x8, addend: 0x0, symName: __ZNSt3__117__compressed_pairImNS_9allocatorINS_11__list_nodeINS_4pairIiNS_4listINS3_INS_12basic_stringIcNS_11char_traitsIcEENS1_IcEEEES9_EENS1_ISA_EEEEEEPvEEEEE5firstB8ue170006Ev, symObjAddr: 0x1F54, symBinAddr: 0x100005F0C, symSize: 0x24 }
  - { offsetInCU: 0xC03F, offset: 0xC03F, size: 0x8, addend: 0x0, symName: __ZNSt3__122__compressed_pair_elemImLi0ELb0EE5__getB8ue170006Ev, symObjAddr: 0x1F78, symBinAddr: 0x100005F30, symSize: 0x14 }
  - { offsetInCU: 0xC064, offset: 0xC064, size: 0x8, addend: 0x0, symName: __ZNSt3__19allocatorINS_11__list_nodeINS_4pairIiNS_4listINS2_INS_12basic_stringIcNS_11char_traitsIcEENS0_IcEEEES8_EENS0_IS9_EEEEEEPvEEE10deallocateB8ue170006EPSE_m, symObjAddr: 0x1F8C, symBinAddr: 0x100005F44, symSize: 0x74 }
  - { offsetInCU: 0xC0A4, offset: 0xC0A4, size: 0x8, addend: 0x0, symName: __ZNSt3__14pairIiNS_4listINS0_INS_12basic_stringIcNS_11char_traitsIcEENS_9allocatorIcEEEES7_EENS5_IS8_EEEEED2Ev, symObjAddr: 0x2088, symBinAddr: 0x100006040, symSize: 0x30 }
  - { offsetInCU: 0xC0CF, offset: 0xC0CF, size: 0x8, addend: 0x0, symName: __ZNSt3__14listINS_4pairINS_12basic_stringIcNS_11char_traitsIcEENS_9allocatorIcEEEES7_EENS5_IS8_EEED2Ev, symObjAddr: 0x20B8, symBinAddr: 0x100006070, symSize: 0x2C }
  - { offsetInCU: 0xC0FB, offset: 0xC0FB, size: 0x8, addend: 0x0, symName: __ZNSt3__110__list_impINS_4pairINS_12basic_stringIcNS_11char_traitsIcEENS_9allocatorIcEEEES7_EENS5_IS8_EEED2Ev, symObjAddr: 0x20E4, symBinAddr: 0x10000609C, symSize: 0x2C }
  - { offsetInCU: 0xC126, offset: 0xC126, size: 0x8, addend: 0x0, symName: __ZNSt3__110__list_impINS_4pairINS_12basic_stringIcNS_11char_traitsIcEENS_9allocatorIcEEEES7_EENS5_IS8_EEE5clearEv, symObjAddr: 0x2110, symBinAddr: 0x1000060C8, symSize: 0xF4 }
  - { offsetInCU: 0xC195, offset: 0xC195, size: 0x8, addend: 0x0, symName: __ZNKSt3__110__list_impINS_4pairINS_12basic_stringIcNS_11char_traitsIcEENS_9allocatorIcEEEES7_EENS5_IS8_EEE5emptyB8ue170006Ev, symObjAddr: 0x2204, symBinAddr: 0x1000061BC, symSize: 0x34 }
  - { offsetInCU: 0xC1BA, offset: 0xC1BA, size: 0x8, addend: 0x0, symName: __ZNSt3__110__list_impINS_4pairINS_12basic_stringIcNS_11char_traitsIcEENS_9allocatorIcEEEES7_EENS5_IS8_EEE12__node_allocB8ue170006Ev, symObjAddr: 0x2238, symBinAddr: 0x1000061F0, symSize: 0x28 }
  - { offsetInCU: 0xC1DF, offset: 0xC1DF, size: 0x8, addend: 0x0, symName: __ZNKSt3__110__list_impINS_4pairINS_12basic_stringIcNS_11char_traitsIcEENS_9allocatorIcEEEES7_EENS5_IS8_EEE13__end_as_linkB8ue170006Ev, symObjAddr: 0x2260, symBinAddr: 0x100006218, symSize: 0x58 }
  - { offsetInCU: 0xC204, offset: 0xC204, size: 0x8, addend: 0x0, symName: __ZNSt3__110__list_impINS_4pairINS_12basic_stringIcNS_11char_traitsIcEENS_9allocatorIcEEEES7_EENS5_IS8_EEE14__unlink_nodesEPNS_16__list_node_baseIS8_PvEESE_, symObjAddr: 0x22B8, symBinAddr: 0x100006270, symSize: 0x3C }
  - { offsetInCU: 0xC239, offset: 0xC239, size: 0x8, addend: 0x0, symName: __ZNSt3__110__list_impINS_4pairINS_12basic_stringIcNS_11char_traitsIcEENS_9allocatorIcEEEES7_EENS5_IS8_EEE4__szB8ue170006Ev, symObjAddr: 0x22F4, symBinAddr: 0x1000062AC, symSize: 0x28 }
  - { offsetInCU: 0xC25E, offset: 0xC25E, size: 0x8, addend: 0x0, symName: __ZNSt3__116__list_node_baseINS_4pairINS_12basic_stringIcNS_11char_traitsIcEENS_9allocatorIcEEEES7_EEPvE9__as_nodeB8ue170006Ev, symObjAddr: 0x231C, symBinAddr: 0x1000062D4, symSize: 0x24 }
  - { offsetInCU: 0xC283, offset: 0xC283, size: 0x8, addend: 0x0, symName: __ZNSt3__116allocator_traitsINS_9allocatorINS_11__list_nodeINS_4pairINS_12basic_stringIcNS_11char_traitsIcEENS1_IcEEEES8_EEPvEEEEE7destroyB8ue170006IS9_vvEEvRSC_PT_, symObjAddr: 0x2340, symBinAddr: 0x1000062F8, symSize: 0x28 }
  - { offsetInCU: 0xC2BE, offset: 0xC2BE, size: 0x8, addend: 0x0, symName: __ZNSt3__116allocator_traitsINS_9allocatorINS_11__list_nodeINS_4pairINS_12basic_stringIcNS_11char_traitsIcEENS1_IcEEEES8_EEPvEEEEE10deallocateB8ue170006ERSC_PSB_m, symObjAddr: 0x2368, symBinAddr: 0x100006320, symSize: 0x34 }
  - { offsetInCU: 0xC300, offset: 0xC300, size: 0x8, addend: 0x0, symName: __ZNKSt3__110__list_impINS_4pairINS_12basic_stringIcNS_11char_traitsIcEENS_9allocatorIcEEEES7_EENS5_IS8_EEE4__szB8ue170006Ev, symObjAddr: 0x239C, symBinAddr: 0x100006354, symSize: 0x28 }
  - { offsetInCU: 0xC325, offset: 0xC325, size: 0x8, addend: 0x0, symName: __ZNKSt3__117__compressed_pairImNS_9allocatorINS_11__list_nodeINS_4pairINS_12basic_stringIcNS_11char_traitsIcEENS1_IcEEEES8_EEPvEEEEE5firstB8ue170006Ev, symObjAddr: 0x23C4, symBinAddr: 0x10000637C, symSize: 0x24 }
  - { offsetInCU: 0xC34A, offset: 0xC34A, size: 0x8, addend: 0x0, symName: __ZNSt3__117__compressed_pairImNS_9allocatorINS_11__list_nodeINS_4pairINS_12basic_stringIcNS_11char_traitsIcEENS1_IcEEEES8_EEPvEEEEE6secondB8ue170006Ev, symObjAddr: 0x23E8, symBinAddr: 0x1000063A0, symSize: 0x24 }
  - { offsetInCU: 0xC36F, offset: 0xC36F, size: 0x8, addend: 0x0, symName: __ZNSt3__122__compressed_pair_elemINS_9allocatorINS_11__list_nodeINS_4pairINS_12basic_stringIcNS_11char_traitsIcEENS1_IcEEEES8_EEPvEEEELi1ELb1EE5__getB8ue170006Ev, symObjAddr: 0x240C, symBinAddr: 0x1000063C4, symSize: 0x14 }
  - { offsetInCU: 0xC394, offset: 0xC394, size: 0x8, addend: 0x0, symName: __ZNSt3__126__list_node_pointer_traitsINS_4pairINS_12basic_stringIcNS_11char_traitsIcEENS_9allocatorIcEEEES7_EEPvE26__unsafe_link_pointer_castB8ue170006EPNS_16__list_node_baseIS8_S9_EE, symObjAddr: 0x2420, symBinAddr: 0x1000063D8, symSize: 0x14 }
  - { offsetInCU: 0xC3B8, offset: 0xC3B8, size: 0x8, addend: 0x0, symName: __ZNSt3__116__list_node_baseINS_4pairINS_12basic_stringIcNS_11char_traitsIcEENS_9allocatorIcEEEES7_EEPvE6__selfB8ue170006Ev, symObjAddr: 0x2434, symBinAddr: 0x1000063EC, symSize: 0x24 }
  - { offsetInCU: 0xC3E2, offset: 0xC3E2, size: 0x8, addend: 0x0, symName: __ZNSt3__114pointer_traitsIPNS_16__list_node_baseINS_4pairINS_12basic_stringIcNS_11char_traitsIcEENS_9allocatorIcEEEES8_EEPvEEE10pointer_toB8ue170006ERSB_, symObjAddr: 0x2458, symBinAddr: 0x100006410, symSize: 0x14 }
  - { offsetInCU: 0xC405, offset: 0xC405, size: 0x8, addend: 0x0, symName: __ZNSt3__117__compressed_pairImNS_9allocatorINS_11__list_nodeINS_4pairINS_12basic_stringIcNS_11char_traitsIcEENS1_IcEEEES8_EEPvEEEEE5firstB8ue170006Ev, symObjAddr: 0x246C, symBinAddr: 0x100006424, symSize: 0x24 }
  - { offsetInCU: 0xC42A, offset: 0xC42A, size: 0x8, addend: 0x0, symName: __ZNSt3__19allocatorINS_11__list_nodeINS_4pairINS_12basic_stringIcNS_11char_traitsIcEENS0_IcEEEES7_EEPvEEE10deallocateB8ue170006EPSA_m, symObjAddr: 0x2490, symBinAddr: 0x100006448, symSize: 0x70 }
  - { offsetInCU: 0xC46A, offset: 0xC46A, size: 0x8, addend: 0x0, symName: __ZNSt3__14pairINS_12basic_stringIcNS_11char_traitsIcEENS_9allocatorIcEEEES6_ED2Ev, symObjAddr: 0x2500, symBinAddr: 0x1000064B8, symSize: 0x68 }
  - { offsetInCU: 0xC494, offset: 0xC494, size: 0x8, addend: 0x0, symName: __ZN8AccountsD2Ev, symObjAddr: 0x2568, symBinAddr: 0x100006520, symSize: 0xD0 }
  - { offsetInCU: 0xC4BF, offset: 0xC4BF, size: 0x8, addend: 0x0, symName: __ZNSt3__14listINS_4pairIiNS0_INS1_INS_12basic_stringIcNS_11char_traitsIcEENS_9allocatorIcEEEES7_EENS5_IS8_EEEEEENS5_ISB_EEEC2B8ue170006Ev, symObjAddr: 0x2638, symBinAddr: 0x1000065F0, symSize: 0x2C }
  - { offsetInCU: 0xC4E8, offset: 0xC4E8, size: 0x8, addend: 0x0, symName: __ZNSt3__110__list_impINS_4pairIiNS_4listINS1_INS_12basic_stringIcNS_11char_traitsIcEENS_9allocatorIcEEEES8_EENS6_IS9_EEEEEENS6_ISC_EEEC2Ev, symObjAddr: 0x2664, symBinAddr: 0x10000661C, symSize: 0x44 }
  - { offsetInCU: 0xC513, offset: 0xC513, size: 0x8, addend: 0x0, symName: __ZNSt3__116__list_node_baseINS_4pairIiNS_4listINS1_INS_12basic_stringIcNS_11char_traitsIcEENS_9allocatorIcEEEES8_EENS6_IS9_EEEEEEPvEC1B8ue170006Ev, symObjAddr: 0x26A8, symBinAddr: 0x100006660, symSize: 0x2C }
  - { offsetInCU: 0xC546, offset: 0xC546, size: 0x8, addend: 0x0, symName: __ZNSt3__117__compressed_pairImNS_9allocatorINS_11__list_nodeINS_4pairIiNS_4listINS3_INS_12basic_stringIcNS_11char_traitsIcEENS1_IcEEEES9_EENS1_ISA_EEEEEEPvEEEEEC1B8ue170006IiNS_18__default_init_tagEEEOT_OT0_, symObjAddr: 0x26D4, symBinAddr: 0x10000668C, symSize: 0x3C }
  - { offsetInCU: 0xC59D, offset: 0xC59D, size: 0x8, addend: 0x0, symName: __ZNSt3__116__list_node_baseINS_4pairIiNS_4listINS1_INS_12basic_stringIcNS_11char_traitsIcEENS_9allocatorIcEEEES8_EENS6_IS9_EEEEEEPvEC2B8ue170006Ev, symObjAddr: 0x2710, symBinAddr: 0x1000066C8, symSize: 0x4C }
  - { offsetInCU: 0xC5C6, offset: 0xC5C6, size: 0x8, addend: 0x0, symName: __ZNSt3__117__compressed_pairImNS_9allocatorINS_11__list_nodeINS_4pairIiNS_4listINS3_INS_12basic_stringIcNS_11char_traitsIcEENS1_IcEEEES9_EENS1_ISA_EEEEEEPvEEEEEC2B8ue170006IiNS_18__default_init_tagEEEOT_OT0_, symObjAddr: 0x275C, symBinAddr: 0x100006714, symSize: 0x40 }
  - { offsetInCU: 0xC61D, offset: 0xC61D, size: 0x8, addend: 0x0, symName: __ZNSt3__122__compressed_pair_elemImLi0ELb0EEC2B8ue170006IivEEOT_, symObjAddr: 0x279C, symBinAddr: 0x100006754, symSize: 0x24 }
  - { offsetInCU: 0xC65E, offset: 0xC65E, size: 0x8, addend: 0x0, symName: __ZNSt3__122__compressed_pair_elemINS_9allocatorINS_11__list_nodeINS_4pairIiNS_4listINS3_INS_12basic_stringIcNS_11char_traitsIcEENS1_IcEEEES9_EENS1_ISA_EEEEEEPvEEEELi1ELb1EEC2B8ue170006ENS_18__default_init_tagE, symObjAddr: 0x27C0, symBinAddr: 0x100006778, symSize: 0x2C }
  - { offsetInCU: 0xC692, offset: 0xC692, size: 0x8, addend: 0x0, symName: __ZNSt3__19allocatorINS_11__list_nodeINS_4pairIiNS_4listINS2_INS_12basic_stringIcNS_11char_traitsIcEENS0_IcEEEES8_EENS0_IS9_EEEEEEPvEEEC2B8ue170006Ev, symObjAddr: 0x27EC, symBinAddr: 0x1000067A4, symSize: 0x2C }
  - { offsetInCU: 0xC6BB, offset: 0xC6BB, size: 0x8, addend: 0x0, symName: __ZNSt3__116__non_trivial_ifILb1ENS_9allocatorINS_11__list_nodeINS_4pairIiNS_4listINS3_INS_12basic_stringIcNS_11char_traitsIcEENS1_IcEEEES9_EENS1_ISA_EEEEEEPvEEEEEC2B8ue170006Ev, symObjAddr: 0x2818, symBinAddr: 0x1000067D0, symSize: 0x14 }
  - { offsetInCU: 0xC6E4, offset: 0xC6E4, size: 0x8, addend: 0x0, symName: __ZNSt3__14listINS_4pairIiNS0_INS1_INS_12basic_stringIcNS_11char_traitsIcEENS_9allocatorIcEEEES7_EENS5_IS8_EEEEEENS5_ISB_EEE5beginB8ue170006Ev, symObjAddr: 0x282C, symBinAddr: 0x1000067E4, symSize: 0x2C }
  - { offsetInCU: 0xC709, offset: 0xC709, size: 0x8, addend: 0x0, symName: __ZNSt3__110__list_impINS_4pairIiNS_4listINS1_INS_12basic_stringIcNS_11char_traitsIcEENS_9allocatorIcEEEES8_EENS6_IS9_EEEEEENS6_ISC_EEE5beginB8ue170006Ev, symObjAddr: 0x2858, symBinAddr: 0x100006810, symSize: 0x30 }
  - { offsetInCU: 0xC72E, offset: 0xC72E, size: 0x8, addend: 0x0, symName: __ZNSt3__115__list_iteratorINS_4pairIiNS_4listINS1_INS_12basic_stringIcNS_11char_traitsIcEENS_9allocatorIcEEEES8_EENS6_IS9_EEEEEEPvEC1B8ue170006EPNS_16__list_node_baseISC_SD_EE, symObjAddr: 0x2888, symBinAddr: 0x100006840, symSize: 0x34 }
  - { offsetInCU: 0xC766, offset: 0xC766, size: 0x8, addend: 0x0, symName: __ZNSt3__115__list_iteratorINS_4pairIiNS_4listINS1_INS_12basic_stringIcNS_11char_traitsIcEENS_9allocatorIcEEEES8_EENS6_IS9_EEEEEEPvEC2B8ue170006EPNS_16__list_node_baseISC_SD_EE, symObjAddr: 0x28BC, symBinAddr: 0x100006874, symSize: 0x20 }
  - { offsetInCU: 0xC79E, offset: 0xC79E, size: 0x8, addend: 0x0, symName: __ZNSt3__14listINS_4pairIiNS0_INS1_INS_12basic_stringIcNS_11char_traitsIcEENS_9allocatorIcEEEES7_EENS5_IS8_EEEEEENS5_ISB_EEE3endB8ue170006Ev, symObjAddr: 0x28DC, symBinAddr: 0x100006894, symSize: 0x2C }
  - { offsetInCU: 0xC7C3, offset: 0xC7C3, size: 0x8, addend: 0x0, symName: __ZNSt3__110__list_impINS_4pairIiNS_4listINS1_INS_12basic_stringIcNS_11char_traitsIcEENS_9allocatorIcEEEES8_EENS6_IS9_EEEEEENS6_ISC_EEE3endB8ue170006Ev, symObjAddr: 0x2908, symBinAddr: 0x1000068C0, symSize: 0x34 }
  - { offsetInCU: 0xC7E8, offset: 0xC7E8, size: 0x8, addend: 0x0, symName: __ZNSt3__115__list_iteratorINS_4pairIiNS_4listINS1_INS_12basic_stringIcNS_11char_traitsIcEENS_9allocatorIcEEEES8_EENS6_IS9_EEEEEEPvEppB8ue170006Ev, symObjAddr: 0x296C, symBinAddr: 0x100006924, symSize: 0x20 }
  - { offsetInCU: 0xC80D, offset: 0xC80D, size: 0x8, addend: 0x0, symName: __ZNSt3__114pointer_traitsIPNS_4pairIiNS_4listINS1_INS_12basic_stringIcNS_11char_traitsIcEENS_9allocatorIcEEEES8_EENS6_IS9_EEEEEEE10pointer_toB8ue170006ERSC_, symObjAddr: 0x298C, symBinAddr: 0x100006944, symSize: 0x14 }
  - { offsetInCU: 0xC830, offset: 0xC830, size: 0x8, addend: 0x0, symName: __ZNSt3__111char_traitsIcE6lengthB8ue170006EPKc, symObjAddr: 0x2B94, symBinAddr: 0x100006B4C, symSize: 0x48 }
  - { offsetInCU: 0xC871, offset: 0xC871, size: 0x8, addend: 0x0, symName: __ZNKSt3__113basic_ostreamIcNS_11char_traitsIcEEE6sentrycvbB8ue170006Ev, symObjAddr: 0x2BDC, symBinAddr: 0x100006B94, symSize: 0x1C }
  - { offsetInCU: 0xC896, offset: 0xC896, size: 0x8, addend: 0x0, symName: __ZNSt3__119ostreambuf_iteratorIcNS_11char_traitsIcEEEC1B8ue170006ERNS_13basic_ostreamIcS2_EE, symObjAddr: 0x2E40, symBinAddr: 0x100006DF8, symSize: 0x34 }
  - { offsetInCU: 0xC8CD, offset: 0xC8CD, size: 0x8, addend: 0x0, symName: __ZNKSt3__18ios_base5flagsB8ue170006Ev, symObjAddr: 0x2E74, symBinAddr: 0x100006E2C, symSize: 0x18 }
  - { offsetInCU: 0xC8F4, offset: 0xC8F4, size: 0x8, addend: 0x0, symName: __ZNKSt3__19basic_iosIcNS_11char_traitsIcEEE4fillB8ue170006Ev, symObjAddr: 0x2E8C, symBinAddr: 0x100006E44, symSize: 0x64 }
  - { offsetInCU: 0xC91B, offset: 0xC91B, size: 0x8, addend: 0x0, symName: __ZNKSt3__119ostreambuf_iteratorIcNS_11char_traitsIcEEE6failedB8ue170006Ev, symObjAddr: 0x2EF0, symBinAddr: 0x100006EA8, symSize: 0x24 }
  - { offsetInCU: 0xC940, offset: 0xC940, size: 0x8, addend: 0x0, symName: __ZNSt3__19basic_iosIcNS_11char_traitsIcEEE8setstateB8ue170006Ej, symObjAddr: 0x2F14, symBinAddr: 0x100006ECC, symSize: 0x2C }
  - { offsetInCU: 0xC974, offset: 0xC974, size: 0x8, addend: 0x0, symName: __ZNKSt3__18ios_base5widthB8ue170006Ev, symObjAddr: 0x2F40, symBinAddr: 0x100006EF8, symSize: 0x18 }
  - { offsetInCU: 0xC99B, offset: 0xC99B, size: 0x8, addend: 0x0, symName: __ZNSt3__115basic_streambufIcNS_11char_traitsIcEEE5sputnB8ue170006EPKcl, symObjAddr: 0x2F58, symBinAddr: 0x100006F10, symSize: 0x3C }
  - { offsetInCU: 0xC9DC, offset: 0xC9DC, size: 0x8, addend: 0x0, symName: __ZNSt3__112basic_stringIcNS_11char_traitsIcEENS_9allocatorIcEEEC1B8ue170006Emc, symObjAddr: 0x2F94, symBinAddr: 0x100006F4C, symSize: 0x3C }
  - { offsetInCU: 0xCA23, offset: 0xCA23, size: 0x8, addend: 0x0, symName: __ZNKSt3__112basic_stringIcNS_11char_traitsIcEENS_9allocatorIcEEE4dataB8ue170006Ev, symObjAddr: 0x2FD0, symBinAddr: 0x100006F88, symSize: 0x28 }
  - { offsetInCU: 0xCA48, offset: 0xCA48, size: 0x8, addend: 0x0, symName: __ZNSt3__18ios_base5widthB8ue170006El, symObjAddr: 0x2FF8, symBinAddr: 0x100006FB0, symSize: 0x2C }
  - { offsetInCU: 0xCA8D, offset: 0xCA8D, size: 0x8, addend: 0x0, symName: __ZNSt3__112basic_stringIcNS_11char_traitsIcEENS_9allocatorIcEEEC2B8ue170006Emc, symObjAddr: 0x3024, symBinAddr: 0x100006FDC, symSize: 0x4C }
  - { offsetInCU: 0xCAD4, offset: 0xCAD4, size: 0x8, addend: 0x0, symName: __ZNSt3__117__compressed_pairINS_12basic_stringIcNS_11char_traitsIcEENS_9allocatorIcEEE5__repES5_EC1B8ue170006INS_18__default_init_tagESA_EEOT_OT0_, symObjAddr: 0x3070, symBinAddr: 0x100007028, symSize: 0x3C }
  - { offsetInCU: 0xCB2B, offset: 0xCB2B, size: 0x8, addend: 0x0, symName: __ZNSt3__117__compressed_pairINS_12basic_stringIcNS_11char_traitsIcEENS_9allocatorIcEEE5__repES5_EC2B8ue170006INS_18__default_init_tagESA_EEOT_OT0_, symObjAddr: 0x30AC, symBinAddr: 0x100007064, symSize: 0x3C }
  - { offsetInCU: 0xCB82, offset: 0xCB82, size: 0x8, addend: 0x0, symName: __ZNSt3__122__compressed_pair_elemINS_12basic_stringIcNS_11char_traitsIcEENS_9allocatorIcEEE5__repELi0ELb0EEC2B8ue170006ENS_18__default_init_tagE, symObjAddr: 0x30E8, symBinAddr: 0x1000070A0, symSize: 0x14 }
  - { offsetInCU: 0xCBB6, offset: 0xCBB6, size: 0x8, addend: 0x0, symName: __ZNSt3__122__compressed_pair_elemINS_9allocatorIcEELi1ELb1EEC2B8ue170006ENS_18__default_init_tagE, symObjAddr: 0x30FC, symBinAddr: 0x1000070B4, symSize: 0x2C }
  - { offsetInCU: 0xCBEA, offset: 0xCBEA, size: 0x8, addend: 0x0, symName: __ZNSt3__19allocatorIcEC2B8ue170006Ev, symObjAddr: 0x3128, symBinAddr: 0x1000070E0, symSize: 0x2C }
  - { offsetInCU: 0xCC13, offset: 0xCC13, size: 0x8, addend: 0x0, symName: __ZNSt3__116__non_trivial_ifILb1ENS_9allocatorIcEEEC2B8ue170006Ev, symObjAddr: 0x3154, symBinAddr: 0x10000710C, symSize: 0x14 }
  - { offsetInCU: 0xCC3C, offset: 0xCC3C, size: 0x8, addend: 0x0, symName: __ZNKSt3__112basic_stringIcNS_11char_traitsIcEENS_9allocatorIcEEE13__get_pointerB8ue170006Ev, symObjAddr: 0x317C, symBinAddr: 0x100007134, symSize: 0x54 }
  - { offsetInCU: 0xCC61, offset: 0xCC61, size: 0x8, addend: 0x0, symName: __ZNKSt3__112basic_stringIcNS_11char_traitsIcEENS_9allocatorIcEEE9__is_longB8ue170006Ev, symObjAddr: 0x31D0, symBinAddr: 0x100007188, symSize: 0x74 }
  - { offsetInCU: 0xCC86, offset: 0xCC86, size: 0x8, addend: 0x0, symName: __ZNKSt3__112basic_stringIcNS_11char_traitsIcEENS_9allocatorIcEEE18__get_long_pointerB8ue170006Ev, symObjAddr: 0x3244, symBinAddr: 0x1000071FC, symSize: 0x28 }
  - { offsetInCU: 0xCCAB, offset: 0xCCAB, size: 0x8, addend: 0x0, symName: __ZNKSt3__112basic_stringIcNS_11char_traitsIcEENS_9allocatorIcEEE19__get_short_pointerB8ue170006Ev, symObjAddr: 0x326C, symBinAddr: 0x100007224, symSize: 0x28 }
  - { offsetInCU: 0xCCD0, offset: 0xCCD0, size: 0x8, addend: 0x0, symName: __ZNKSt3__117__compressed_pairINS_12basic_stringIcNS_11char_traitsIcEENS_9allocatorIcEEE5__repES5_E5firstB8ue170006Ev, symObjAddr: 0x3294, symBinAddr: 0x10000724C, symSize: 0x24 }
  - { offsetInCU: 0xCCF5, offset: 0xCCF5, size: 0x8, addend: 0x0, symName: __ZNKSt3__122__compressed_pair_elemINS_12basic_stringIcNS_11char_traitsIcEENS_9allocatorIcEEE5__repELi0ELb0EE5__getB8ue170006Ev, symObjAddr: 0x32B8, symBinAddr: 0x100007270, symSize: 0x14 }
  - { offsetInCU: 0xCD1A, offset: 0xCD1A, size: 0x8, addend: 0x0, symName: __ZNSt3__114pointer_traitsIPKcE10pointer_toB8ue170006ERS1_, symObjAddr: 0x32CC, symBinAddr: 0x100007284, symSize: 0x14 }
  - { offsetInCU: 0xCD3D, offset: 0xCD3D, size: 0x8, addend: 0x0, symName: __ZNSt3__119ostreambuf_iteratorIcNS_11char_traitsIcEEEC2B8ue170006ERNS_13basic_ostreamIcS2_EE, symObjAddr: 0x32E0, symBinAddr: 0x100007298, symSize: 0x68 }
  - { offsetInCU: 0xCD74, offset: 0xCD74, size: 0x8, addend: 0x0, symName: __ZNKSt3__19basic_iosIcNS_11char_traitsIcEEE5rdbufB8ue170006Ev, symObjAddr: 0x3348, symBinAddr: 0x100007300, symSize: 0x24 }
  - { offsetInCU: 0xCD9B, offset: 0xCD9B, size: 0x8, addend: 0x0, symName: __ZNKSt3__18ios_base5rdbufB8ue170006Ev, symObjAddr: 0x336C, symBinAddr: 0x100007324, symSize: 0x18 }
  - { offsetInCU: 0xCDC0, offset: 0xCDC0, size: 0x8, addend: 0x0, symName: __ZNSt3__111char_traitsIcE11eq_int_typeB8ue170006Eii, symObjAddr: 0x3384, symBinAddr: 0x10000733C, symSize: 0x28 }
  - { offsetInCU: 0xCDF3, offset: 0xCDF3, size: 0x8, addend: 0x0, symName: __ZNSt3__111char_traitsIcE3eofB8ue170006Ev, symObjAddr: 0x33AC, symBinAddr: 0x100007364, symSize: 0x8 }
  - { offsetInCU: 0xCE07, offset: 0xCE07, size: 0x8, addend: 0x0, symName: __ZNKSt3__19basic_iosIcNS_11char_traitsIcEEE5widenB8ue170006Ec, symObjAddr: 0x33B4, symBinAddr: 0x10000736C, symSize: 0x8C }
  - { offsetInCU: 0xCE74, offset: 0xCE74, size: 0x8, addend: 0x0, symName: __ZNKSt3__15ctypeIcE5widenB8ue170006Ec, symObjAddr: 0x346C, symBinAddr: 0x100007424, symSize: 0x38 }
  - { offsetInCU: 0xCEA8, offset: 0xCEA8, size: 0x8, addend: 0x0, symName: __ZNSt3__18ios_base8setstateB8ue170006Ej, symObjAddr: 0x34A4, symBinAddr: 0x10000745C, symSize: 0x34 }
  - { offsetInCU: 0xCEDE, offset: 0xCEDE, size: 0x8, addend: 0x0, symName: __ZNSt3__14listINS_4pairIiNS0_INS1_INS_12basic_stringIcNS_11char_traitsIcEENS_9allocatorIcEEEES7_EENS5_IS8_EEEEEENS5_ISB_EEE15__allocate_nodeB8ue170006ERNS5_INS_11__list_nodeISB_PvEEEE, symObjAddr: 0x34FC, symBinAddr: 0x1000074B4, symSize: 0x70 }
  - { offsetInCU: 0xCF21, offset: 0xCF21, size: 0x8, addend: 0x0, symName: __ZNSt3__116allocator_traitsINS_9allocatorINS_11__list_nodeINS_4pairIiNS_4listINS3_INS_12basic_stringIcNS_11char_traitsIcEENS1_IcEEEES9_EENS1_ISA_EEEEEEPvEEEEE9constructB8ue170006ISD_JRKSD_EvEEvRSG_PT_DpOT0_, symObjAddr: 0x356C, symBinAddr: 0x100007524, symSize: 0x34 }
  - { offsetInCU: 0xCF78, offset: 0xCF78, size: 0x8, addend: 0x0, symName: __ZNKSt3__110unique_ptrINS_11__list_nodeINS_4pairIiNS_4listINS2_INS_12basic_stringIcNS_11char_traitsIcEENS_9allocatorIcEEEES9_EENS7_ISA_EEEEEEPvEENS_22__allocator_destructorINS7_ISF_EEEEEptB8ue170006Ev, symObjAddr: 0x35A0, symBinAddr: 0x100007558, symSize: 0x28 }
  - { offsetInCU: 0xCF9D, offset: 0xCF9D, size: 0x8, addend: 0x0, symName: __ZNSt3__14listINS_4pairIiNS0_INS1_INS_12basic_stringIcNS_11char_traitsIcEENS_9allocatorIcEEEES7_EENS5_IS8_EEEEEENS5_ISB_EEE20__link_nodes_at_backEPNS_16__list_node_baseISB_PvEESH_, symObjAddr: 0x35C8, symBinAddr: 0x100007580, symSize: 0x60 }
  - { offsetInCU: 0xCFE2, offset: 0xCFE2, size: 0x8, addend: 0x0, symName: __ZNKSt3__110unique_ptrINS_11__list_nodeINS_4pairIiNS_4listINS2_INS_12basic_stringIcNS_11char_traitsIcEENS_9allocatorIcEEEES9_EENS7_ISA_EEEEEEPvEENS_22__allocator_destructorINS7_ISF_EEEEE3getB8ue170006Ev, symObjAddr: 0x3628, symBinAddr: 0x1000075E0, symSize: 0x28 }
  - { offsetInCU: 0xD007, offset: 0xD007, size: 0x8, addend: 0x0, symName: __ZNSt3__111__list_nodeINS_4pairIiNS_4listINS1_INS_12basic_stringIcNS_11char_traitsIcEENS_9allocatorIcEEEES8_EENS6_IS9_EEEEEEPvE9__as_linkB8ue170006Ev, symObjAddr: 0x3650, symBinAddr: 0x100007608, symSize: 0x24 }
  - { offsetInCU: 0xD02C, offset: 0xD02C, size: 0x8, addend: 0x0, symName: __ZNSt3__110unique_ptrINS_11__list_nodeINS_4pairIiNS_4listINS2_INS_12basic_stringIcNS_11char_traitsIcEENS_9allocatorIcEEEES9_EENS7_ISA_EEEEEEPvEENS_22__allocator_destructorINS7_ISF_EEEEE7releaseB8ue170006Ev, symObjAddr: 0x3674, symBinAddr: 0x10000762C, symSize: 0x44 }
  - { offsetInCU: 0xD060, offset: 0xD060, size: 0x8, addend: 0x0, symName: __ZNSt3__110unique_ptrINS_11__list_nodeINS_4pairIiNS_4listINS2_INS_12basic_stringIcNS_11char_traitsIcEENS_9allocatorIcEEEES9_EENS7_ISA_EEEEEEPvEENS_22__allocator_destructorINS7_ISF_EEEEED1B8ue170006Ev, symObjAddr: 0x36B8, symBinAddr: 0x100007670, symSize: 0x2C }
  - { offsetInCU: 0xD089, offset: 0xD089, size: 0x8, addend: 0x0, symName: __ZNSt3__116allocator_traitsINS_9allocatorINS_11__list_nodeINS_4pairIiNS_4listINS3_INS_12basic_stringIcNS_11char_traitsIcEENS1_IcEEEES9_EENS1_ISA_EEEEEEPvEEEEE8allocateB8ue170006ERSG_m, symObjAddr: 0x36E4, symBinAddr: 0x10000769C, symSize: 0x2C }
  - { offsetInCU: 0xD0BC, offset: 0xD0BC, size: 0x8, addend: 0x0, symName: __ZNSt3__122__allocator_destructorINS_9allocatorINS_11__list_nodeINS_4pairIiNS_4listINS3_INS_12basic_stringIcNS_11char_traitsIcEENS1_IcEEEES9_EENS1_ISA_EEEEEEPvEEEEEC1B8ue170006ERSG_m, symObjAddr: 0x3710, symBinAddr: 0x1000076C8, symSize: 0x3C }
  - { offsetInCU: 0xD106, offset: 0xD106, size: 0x8, addend: 0x0, symName: __ZNSt3__110unique_ptrINS_11__list_nodeINS_4pairIiNS_4listINS2_INS_12basic_stringIcNS_11char_traitsIcEENS_9allocatorIcEEEES9_EENS7_ISA_EEEEEEPvEENS_22__allocator_destructorINS7_ISF_EEEEEC1B8ue170006ILb1EvEEPSF_NS_16__dependent_typeINS_27__unique_ptr_deleter_sfinaeISI_EEXT_EE20__good_rval_ref_typeE, symObjAddr: 0x374C, symBinAddr: 0x100007704, symSize: 0x3C }
  - { offsetInCU: 0xD156, offset: 0xD156, size: 0x8, addend: 0x0, symName: __ZNSt3__19allocatorINS_11__list_nodeINS_4pairIiNS_4listINS2_INS_12basic_stringIcNS_11char_traitsIcEENS0_IcEEEES8_EENS0_IS9_EEEEEEPvEEE8allocateB8ue170006Em, symObjAddr: 0x3788, symBinAddr: 0x100007740, symSize: 0x8C }
  - { offsetInCU: 0xD193, offset: 0xD193, size: 0x8, addend: 0x0, symName: __ZNSt3__116allocator_traitsINS_9allocatorINS_11__list_nodeINS_4pairIiNS_4listINS3_INS_12basic_stringIcNS_11char_traitsIcEENS1_IcEEEES9_EENS1_ISA_EEEEEEPvEEEEE8max_sizeB8ue170006ISG_vEEmRKSG_, symObjAddr: 0x3814, symBinAddr: 0x1000077CC, symSize: 0x24 }
  - { offsetInCU: 0xD1C1, offset: 0xD1C1, size: 0x8, addend: 0x0, symName: __ZNKSt3__19allocatorINS_11__list_nodeINS_4pairIiNS_4listINS2_INS_12basic_stringIcNS_11char_traitsIcEENS0_IcEEEES8_EENS0_IS9_EEEEEEPvEEE8max_sizeB8ue170006Ev, symObjAddr: 0x3894, symBinAddr: 0x10000784C, symSize: 0x18 }
  - { offsetInCU: 0xD1E6, offset: 0xD1E6, size: 0x8, addend: 0x0, symName: __ZNSt3__122__allocator_destructorINS_9allocatorINS_11__list_nodeINS_4pairIiNS_4listINS3_INS_12basic_stringIcNS_11char_traitsIcEENS1_IcEEEES9_EENS1_ISA_EEEEEEPvEEEEEC2B8ue170006ERSG_m, symObjAddr: 0x38D0, symBinAddr: 0x100007888, symSize: 0x2C }
  - { offsetInCU: 0xD22B, offset: 0xD22B, size: 0x8, addend: 0x0, symName: __ZNSt3__110unique_ptrINS_11__list_nodeINS_4pairIiNS_4listINS2_INS_12basic_stringIcNS_11char_traitsIcEENS_9allocatorIcEEEES9_EENS7_ISA_EEEEEEPvEENS_22__allocator_destructorINS7_ISF_EEEEEC2B8ue170006ILb1EvEEPSF_NS_16__dependent_typeINS_27__unique_ptr_deleter_sfinaeISI_EEXT_EE20__good_rval_ref_typeE, symObjAddr: 0x38FC, symBinAddr: 0x1000078B4, symSize: 0x5C }
  - { offsetInCU: 0xD27B, offset: 0xD27B, size: 0x8, addend: 0x0, symName: __ZNSt3__117__compressed_pairIPNS_11__list_nodeINS_4pairIiNS_4listINS2_INS_12basic_stringIcNS_11char_traitsIcEENS_9allocatorIcEEEES9_EENS7_ISA_EEEEEEPvEENS_22__allocator_destructorINS7_ISF_EEEEEC1B8ue170006IRSG_SJ_EEOT_OT0_, symObjAddr: 0x3958, symBinAddr: 0x100007910, symSize: 0x3C }
  - { offsetInCU: 0xD2D2, offset: 0xD2D2, size: 0x8, addend: 0x0, symName: __ZNSt3__117__compressed_pairIPNS_11__list_nodeINS_4pairIiNS_4listINS2_INS_12basic_stringIcNS_11char_traitsIcEENS_9allocatorIcEEEES9_EENS7_ISA_EEEEEEPvEENS_22__allocator_destructorINS7_ISF_EEEEEC2B8ue170006IRSG_SJ_EEOT_OT0_, symObjAddr: 0x3994, symBinAddr: 0x10000794C, symSize: 0x48 }
  - { offsetInCU: 0xD329, offset: 0xD329, size: 0x8, addend: 0x0, symName: __ZNSt3__122__compressed_pair_elemIPNS_11__list_nodeINS_4pairIiNS_4listINS2_INS_12basic_stringIcNS_11char_traitsIcEENS_9allocatorIcEEEES9_EENS7_ISA_EEEEEEPvEELi0ELb0EEC2B8ue170006IRSG_vEEOT_, symObjAddr: 0x39DC, symBinAddr: 0x100007994, symSize: 0x24 }
  - { offsetInCU: 0xD36A, offset: 0xD36A, size: 0x8, addend: 0x0, symName: __ZNSt3__122__compressed_pair_elemINS_22__allocator_destructorINS_9allocatorINS_11__list_nodeINS_4pairIiNS_4listINS4_INS_12basic_stringIcNS_11char_traitsIcEENS2_IcEEEESA_EENS2_ISB_EEEEEEPvEEEEEELi1ELb0EEC2B8ue170006ISI_vEEOT_, symObjAddr: 0x3A00, symBinAddr: 0x1000079B8, symSize: 0x24 }
  - { offsetInCU: 0xD3AB, offset: 0xD3AB, size: 0x8, addend: 0x0, symName: __ZNSt3__19allocatorINS_11__list_nodeINS_4pairIiNS_4listINS2_INS_12basic_stringIcNS_11char_traitsIcEENS0_IcEEEES8_EENS0_IS9_EEEEEEPvEEE9constructB8ue170006ISC_JRKSC_EEEvPT_DpOT0_, symObjAddr: 0x3A24, symBinAddr: 0x1000079DC, symSize: 0x30 }
  - { offsetInCU: 0xD400, offset: 0xD400, size: 0x8, addend: 0x0, symName: __ZNSt3__14pairIiNS_4listINS0_INS_12basic_stringIcNS_11char_traitsIcEENS_9allocatorIcEEEES7_EENS5_IS8_EEEEEC1B8ue170006ERKSB_, symObjAddr: 0x3A54, symBinAddr: 0x100007A0C, symSize: 0x34 }
  - { offsetInCU: 0xD434, offset: 0xD434, size: 0x8, addend: 0x0, symName: __ZNSt3__14pairIiNS_4listINS0_INS_12basic_stringIcNS_11char_traitsIcEENS_9allocatorIcEEEES7_EENS5_IS8_EEEEEC2B8ue170006ERKSB_, symObjAddr: 0x3A88, symBinAddr: 0x100007A40, symSize: 0x48 }
  - { offsetInCU: 0xD468, offset: 0xD468, size: 0x8, addend: 0x0, symName: __ZNSt3__14listINS_4pairINS_12basic_stringIcNS_11char_traitsIcEENS_9allocatorIcEEEES7_EENS5_IS8_EEEC1ERKSA_, symObjAddr: 0x3AD0, symBinAddr: 0x100007A88, symSize: 0x34 }
  - { offsetInCU: 0xD4A2, offset: 0xD4A2, size: 0x8, addend: 0x0, symName: __ZNSt3__14listINS_4pairINS_12basic_stringIcNS_11char_traitsIcEENS_9allocatorIcEEEES7_EENS5_IS8_EEEC2ERKSA_, symObjAddr: 0x3B04, symBinAddr: 0x100007ABC, symSize: 0xDC }
  - { offsetInCU: 0xD513, offset: 0xD513, size: 0x8, addend: 0x0, symName: __ZNSt3__116allocator_traitsINS_9allocatorINS_11__list_nodeINS_4pairINS_12basic_stringIcNS_11char_traitsIcEENS1_IcEEEES8_EEPvEEEEE37select_on_container_copy_constructionB8ue170006ISC_vvEESC_RKSC_, symObjAddr: 0x3BE0, symBinAddr: 0x100007B98, symSize: 0x10 }
  - { offsetInCU: 0xD542, offset: 0xD542, size: 0x8, addend: 0x0, symName: __ZNKSt3__110__list_impINS_4pairINS_12basic_stringIcNS_11char_traitsIcEENS_9allocatorIcEEEES7_EENS5_IS8_EEE12__node_allocB8ue170006Ev, symObjAddr: 0x3BF0, symBinAddr: 0x100007BA8, symSize: 0x28 }
  - { offsetInCU: 0xD567, offset: 0xD567, size: 0x8, addend: 0x0, symName: __ZNSt3__110__list_impINS_4pairINS_12basic_stringIcNS_11char_traitsIcEENS_9allocatorIcEEEES7_EENS5_IS8_EEEC2ERKNS5_INS_11__list_nodeIS8_PvEEEE, symObjAddr: 0x3C18, symBinAddr: 0x100007BD0, symSize: 0x48 }
  - { offsetInCU: 0xD5A1, offset: 0xD5A1, size: 0x8, addend: 0x0, symName: __ZNKSt3__14listINS_4pairINS_12basic_stringIcNS_11char_traitsIcEENS_9allocatorIcEEEES7_EENS5_IS8_EEE5beginB8ue170006Ev, symObjAddr: 0x3C60, symBinAddr: 0x100007C18, symSize: 0x2C }
  - { offsetInCU: 0xD5C6, offset: 0xD5C6, size: 0x8, addend: 0x0, symName: __ZNKSt3__14listINS_4pairINS_12basic_stringIcNS_11char_traitsIcEENS_9allocatorIcEEEES7_EENS5_IS8_EEE3endB8ue170006Ev, symObjAddr: 0x3C8C, symBinAddr: 0x100007C44, symSize: 0x2C }
  - { offsetInCU: 0xD5EB, offset: 0xD5EB, size: 0x8, addend: 0x0, symName: __ZNKSt3__121__list_const_iteratorINS_4pairINS_12basic_stringIcNS_11char_traitsIcEENS_9allocatorIcEEEES7_EEPvEdeB8ue170006Ev, symObjAddr: 0x3CEC, symBinAddr: 0x100007CA4, symSize: 0x2C }
  - { offsetInCU: 0xD610, offset: 0xD610, size: 0x8, addend: 0x0, symName: __ZNSt3__121__list_const_iteratorINS_4pairINS_12basic_stringIcNS_11char_traitsIcEENS_9allocatorIcEEEES7_EEPvEppB8ue170006Ev, symObjAddr: 0x3D18, symBinAddr: 0x100007CD0, symSize: 0x20 }
  - { offsetInCU: 0xD635, offset: 0xD635, size: 0x8, addend: 0x0, symName: __ZNKSt3__117__compressed_pairImNS_9allocatorINS_11__list_nodeINS_4pairINS_12basic_stringIcNS_11char_traitsIcEENS1_IcEEEES8_EEPvEEEEE6secondB8ue170006Ev, symObjAddr: 0x3D38, symBinAddr: 0x100007CF0, symSize: 0x24 }
  - { offsetInCU: 0xD65A, offset: 0xD65A, size: 0x8, addend: 0x0, symName: __ZNKSt3__122__compressed_pair_elemINS_9allocatorINS_11__list_nodeINS_4pairINS_12basic_stringIcNS_11char_traitsIcEENS1_IcEEEES8_EEPvEEEELi1ELb1EE5__getB8ue170006Ev, symObjAddr: 0x3D5C, symBinAddr: 0x100007D14, symSize: 0x14 }
  - { offsetInCU: 0xD67F, offset: 0xD67F, size: 0x8, addend: 0x0, symName: __ZNSt3__116__list_node_baseINS_4pairINS_12basic_stringIcNS_11char_traitsIcEENS_9allocatorIcEEEES7_EEPvEC1B8ue170006Ev, symObjAddr: 0x3D70, symBinAddr: 0x100007D28, symSize: 0x2C }
  - { offsetInCU: 0xD6A8, offset: 0xD6A8, size: 0x8, addend: 0x0, symName: __ZNSt3__117__compressed_pairImNS_9allocatorINS_11__list_nodeINS_4pairINS_12basic_stringIcNS_11char_traitsIcEENS1_IcEEEES8_EEPvEEEEEC1B8ue170006IiRKSC_EEOT_OT0_, symObjAddr: 0x3D9C, symBinAddr: 0x100007D54, symSize: 0x3C }
  - { offsetInCU: 0xD6FF, offset: 0xD6FF, size: 0x8, addend: 0x0, symName: __ZNSt3__116__list_node_baseINS_4pairINS_12basic_stringIcNS_11char_traitsIcEENS_9allocatorIcEEEES7_EEPvEC2B8ue170006Ev, symObjAddr: 0x3DD8, symBinAddr: 0x100007D90, symSize: 0x4C }
  - { offsetInCU: 0xD728, offset: 0xD728, size: 0x8, addend: 0x0, symName: __ZNSt3__117__compressed_pairImNS_9allocatorINS_11__list_nodeINS_4pairINS_12basic_stringIcNS_11char_traitsIcEENS1_IcEEEES8_EEPvEEEEEC2B8ue170006IiRKSC_EEOT_OT0_, symObjAddr: 0x3E24, symBinAddr: 0x100007DDC, symSize: 0x44 }
  - { offsetInCU: 0xD77F, offset: 0xD77F, size: 0x8, addend: 0x0, symName: __ZNSt3__122__compressed_pair_elemINS_9allocatorINS_11__list_nodeINS_4pairINS_12basic_stringIcNS_11char_traitsIcEENS1_IcEEEES8_EEPvEEEELi1ELb1EEC2B8ue170006IRKSC_vEEOT_, symObjAddr: 0x3E68, symBinAddr: 0x100007E20, symSize: 0x18 }
  - { offsetInCU: 0xD7C0, offset: 0xD7C0, size: 0x8, addend: 0x0, symName: __ZNKSt3__110__list_impINS_4pairINS_12basic_stringIcNS_11char_traitsIcEENS_9allocatorIcEEEES7_EENS5_IS8_EEE5beginB8ue170006Ev, symObjAddr: 0x3E80, symBinAddr: 0x100007E38, symSize: 0x30 }
  - { offsetInCU: 0xD7E5, offset: 0xD7E5, size: 0x8, addend: 0x0, symName: __ZNSt3__121__list_const_iteratorINS_4pairINS_12basic_stringIcNS_11char_traitsIcEENS_9allocatorIcEEEES7_EEPvEC1B8ue170006EPNS_16__list_node_baseIS8_S9_EE, symObjAddr: 0x3EB0, symBinAddr: 0x100007E68, symSize: 0x34 }
  - { offsetInCU: 0xD81D, offset: 0xD81D, size: 0x8, addend: 0x0, symName: __ZNSt3__121__list_const_iteratorINS_4pairINS_12basic_stringIcNS_11char_traitsIcEENS_9allocatorIcEEEES7_EEPvEC2B8ue170006EPNS_16__list_node_baseIS8_S9_EE, symObjAddr: 0x3EE4, symBinAddr: 0x100007E9C, symSize: 0x20 }
  - { offsetInCU: 0xD855, offset: 0xD855, size: 0x8, addend: 0x0, symName: __ZNKSt3__110__list_impINS_4pairINS_12basic_stringIcNS_11char_traitsIcEENS_9allocatorIcEEEES7_EENS5_IS8_EEE3endB8ue170006Ev, symObjAddr: 0x3F04, symBinAddr: 0x100007EBC, symSize: 0x34 }
  - { offsetInCU: 0xD87A, offset: 0xD87A, size: 0x8, addend: 0x0, symName: __ZNKSt3__117__compressed_pairIPNS_11__list_nodeINS_4pairIiNS_4listINS2_INS_12basic_stringIcNS_11char_traitsIcEENS_9allocatorIcEEEES9_EENS7_ISA_EEEEEEPvEENS_22__allocator_destructorINS7_ISF_EEEEE5firstB8ue170006Ev, symObjAddr: 0x3F68, symBinAddr: 0x100007F20, symSize: 0x24 }
  - { offsetInCU: 0xD89F, offset: 0xD89F, size: 0x8, addend: 0x0, symName: __ZNKSt3__122__compressed_pair_elemIPNS_11__list_nodeINS_4pairIiNS_4listINS2_INS_12basic_stringIcNS_11char_traitsIcEENS_9allocatorIcEEEES9_EENS7_ISA_EEEEEEPvEELi0ELb0EE5__getB8ue170006Ev, symObjAddr: 0x3F8C, symBinAddr: 0x100007F44, symSize: 0x14 }
  - { offsetInCU: 0xD8C4, offset: 0xD8C4, size: 0x8, addend: 0x0, symName: __ZNSt3__117__compressed_pairIPNS_11__list_nodeINS_4pairIiNS_4listINS2_INS_12basic_stringIcNS_11char_traitsIcEENS_9allocatorIcEEEES9_EENS7_ISA_EEEEEEPvEENS_22__allocator_destructorINS7_ISF_EEEEE5firstB8ue170006Ev, symObjAddr: 0x3FA0, symBinAddr: 0x100007F58, symSize: 0x24 }
  - { offsetInCU: 0xD8E9, offset: 0xD8E9, size: 0x8, addend: 0x0, symName: __ZNSt3__122__compressed_pair_elemIPNS_11__list_nodeINS_4pairIiNS_4listINS2_INS_12basic_stringIcNS_11char_traitsIcEENS_9allocatorIcEEEES9_EENS7_ISA_EEEEEEPvEELi0ELb0EE5__getB8ue170006Ev, symObjAddr: 0x3FC4, symBinAddr: 0x100007F7C, symSize: 0x14 }
  - { offsetInCU: 0xD90E, offset: 0xD90E, size: 0x8, addend: 0x0, symName: __ZNSt3__110unique_ptrINS_11__list_nodeINS_4pairIiNS_4listINS2_INS_12basic_stringIcNS_11char_traitsIcEENS_9allocatorIcEEEES9_EENS7_ISA_EEEEEEPvEENS_22__allocator_destructorINS7_ISF_EEEEED2B8ue170006Ev, symObjAddr: 0x3FD8, symBinAddr: 0x100007F90, symSize: 0x30 }
  - { offsetInCU: 0xD937, offset: 0xD937, size: 0x8, addend: 0x0, symName: __ZNSt3__110unique_ptrINS_11__list_nodeINS_4pairIiNS_4listINS2_INS_12basic_stringIcNS_11char_traitsIcEENS_9allocatorIcEEEES9_EENS7_ISA_EEEEEEPvEENS_22__allocator_destructorINS7_ISF_EEEEE5resetB8ue170006EPSF_, symObjAddr: 0x4008, symBinAddr: 0x100007FC0, symSize: 0x78 }
  - { offsetInCU: 0xD97A, offset: 0xD97A, size: 0x8, addend: 0x0, symName: __ZNSt3__117__compressed_pairIPNS_11__list_nodeINS_4pairIiNS_4listINS2_INS_12basic_stringIcNS_11char_traitsIcEENS_9allocatorIcEEEES9_EENS7_ISA_EEEEEEPvEENS_22__allocator_destructorINS7_ISF_EEEEE6secondB8ue170006Ev, symObjAddr: 0x4080, symBinAddr: 0x100008038, symSize: 0x28 }
  - { offsetInCU: 0xD99F, offset: 0xD99F, size: 0x8, addend: 0x0, symName: __ZNSt3__122__allocator_destructorINS_9allocatorINS_11__list_nodeINS_4pairIiNS_4listINS3_INS_12basic_stringIcNS_11char_traitsIcEENS1_IcEEEES9_EENS1_ISA_EEEEEEPvEEEEEclB8ue170006EPSF_, symObjAddr: 0x40A8, symBinAddr: 0x100008060, symSize: 0x34 }
  - { offsetInCU: 0xD9D2, offset: 0xD9D2, size: 0x8, addend: 0x0, symName: __ZNSt3__122__compressed_pair_elemINS_22__allocator_destructorINS_9allocatorINS_11__list_nodeINS_4pairIiNS_4listINS4_INS_12basic_stringIcNS_11char_traitsIcEENS2_IcEEEESA_EENS2_ISB_EEEEEEPvEEEEEELi1ELb0EE5__getB8ue170006Ev, symObjAddr: 0x40DC, symBinAddr: 0x100008094, symSize: 0x14 }
  - { offsetInCU: 0xD9F7, offset: 0xD9F7, size: 0x8, addend: 0x0, symName: __ZNSt3__14listINS_4pairINS_12basic_stringIcNS_11char_traitsIcEENS_9allocatorIcEEEES7_EENS5_IS8_EEEC2B8ue170006Ev, symObjAddr: 0x40F0, symBinAddr: 0x1000080A8, symSize: 0x2C }
  - { offsetInCU: 0xDA20, offset: 0xDA20, size: 0x8, addend: 0x0, symName: __ZNSt3__110__list_impINS_4pairINS_12basic_stringIcNS_11char_traitsIcEENS_9allocatorIcEEEES7_EENS5_IS8_EEEC2Ev, symObjAddr: 0x411C, symBinAddr: 0x1000080D4, symSize: 0x44 }
  - { offsetInCU: 0xDA4B, offset: 0xDA4B, size: 0x8, addend: 0x0, symName: __ZNSt3__117__compressed_pairImNS_9allocatorINS_11__list_nodeINS_4pairINS_12basic_stringIcNS_11char_traitsIcEENS1_IcEEEES8_EEPvEEEEEC1B8ue170006IiNS_18__default_init_tagEEEOT_OT0_, symObjAddr: 0x4160, symBinAddr: 0x100008118, symSize: 0x3C }
  - { offsetInCU: 0xDAA2, offset: 0xDAA2, size: 0x8, addend: 0x0, symName: __ZNSt3__117__compressed_pairImNS_9allocatorINS_11__list_nodeINS_4pairINS_12basic_stringIcNS_11char_traitsIcEENS1_IcEEEES8_EEPvEEEEEC2B8ue170006IiNS_18__default_init_tagEEEOT_OT0_, symObjAddr: 0x419C, symBinAddr: 0x100008154, symSize: 0x40 }
  - { offsetInCU: 0xDAF9, offset: 0xDAF9, size: 0x8, addend: 0x0, symName: __ZNSt3__122__compressed_pair_elemINS_9allocatorINS_11__list_nodeINS_4pairINS_12basic_stringIcNS_11char_traitsIcEENS1_IcEEEES8_EEPvEEEELi1ELb1EEC2B8ue170006ENS_18__default_init_tagE, symObjAddr: 0x41DC, symBinAddr: 0x100008194, symSize: 0x2C }
  - { offsetInCU: 0xDB2D, offset: 0xDB2D, size: 0x8, addend: 0x0, symName: __ZNSt3__19allocatorINS_11__list_nodeINS_4pairINS_12basic_stringIcNS_11char_traitsIcEENS0_IcEEEES7_EEPvEEEC2B8ue170006Ev, symObjAddr: 0x4208, symBinAddr: 0x1000081C0, symSize: 0x2C }
  - { offsetInCU: 0xDB56, offset: 0xDB56, size: 0x8, addend: 0x0, symName: __ZNSt3__116__non_trivial_ifILb1ENS_9allocatorINS_11__list_nodeINS_4pairINS_12basic_stringIcNS_11char_traitsIcEENS1_IcEEEES8_EEPvEEEEEC2B8ue170006Ev, symObjAddr: 0x4234, symBinAddr: 0x1000081EC, symSize: 0x14 }
  - { offsetInCU: 0xDB7F, offset: 0xDB7F, size: 0x8, addend: 0x0, symName: __ZNSt3__14pairIiNS_4listINS0_INS_12basic_stringIcNS_11char_traitsIcEENS_9allocatorIcEEEES7_EENS5_IS8_EEEEEC2B8ue170006ERKiRKSA_, symObjAddr: 0x4248, symBinAddr: 0x100008200, symSize: 0x48 }
  - { offsetInCU: 0xDBC4, offset: 0xDBC4, size: 0x8, addend: 0x0, symName: __ZNSt3__14listINS_4pairINS_12basic_stringIcNS_11char_traitsIcEENS_9allocatorIcEEEES7_EENS5_IS8_EEE15__allocate_nodeB8ue170006ERNS5_INS_11__list_nodeIS8_PvEEEE, symObjAddr: 0x4290, symBinAddr: 0x100008248, symSize: 0x70 }
  - { offsetInCU: 0xDC07, offset: 0xDC07, size: 0x8, addend: 0x0, symName: __ZNSt3__116allocator_traitsINS_9allocatorINS_11__list_nodeINS_4pairINS_12basic_stringIcNS_11char_traitsIcEENS1_IcEEEES8_EEPvEEEEE9constructB8ue170006IS9_JRKS9_EvEEvRSC_PT_DpOT0_, symObjAddr: 0x4300, symBinAddr: 0x1000082B8, symSize: 0x34 }
  - { offsetInCU: 0xDC5E, offset: 0xDC5E, size: 0x8, addend: 0x0, symName: __ZNKSt3__110unique_ptrINS_11__list_nodeINS_4pairINS_12basic_stringIcNS_11char_traitsIcEENS_9allocatorIcEEEES8_EEPvEENS_22__allocator_destructorINS6_ISB_EEEEEptB8ue170006Ev, symObjAddr: 0x4334, symBinAddr: 0x1000082EC, symSize: 0x28 }
  - { offsetInCU: 0xDC83, offset: 0xDC83, size: 0x8, addend: 0x0, symName: __ZNSt3__14listINS_4pairINS_12basic_stringIcNS_11char_traitsIcEENS_9allocatorIcEEEES7_EENS5_IS8_EEE20__link_nodes_at_backEPNS_16__list_node_baseIS8_PvEESE_, symObjAddr: 0x435C, symBinAddr: 0x100008314, symSize: 0x60 }
  - { offsetInCU: 0xDCC8, offset: 0xDCC8, size: 0x8, addend: 0x0, symName: __ZNKSt3__110unique_ptrINS_11__list_nodeINS_4pairINS_12basic_stringIcNS_11char_traitsIcEENS_9allocatorIcEEEES8_EEPvEENS_22__allocator_destructorINS6_ISB_EEEEE3getB8ue170006Ev, symObjAddr: 0x43BC, symBinAddr: 0x100008374, symSize: 0x28 }
  - { offsetInCU: 0xDCED, offset: 0xDCED, size: 0x8, addend: 0x0, symName: __ZNSt3__111__list_nodeINS_4pairINS_12basic_stringIcNS_11char_traitsIcEENS_9allocatorIcEEEES7_EEPvE9__as_linkB8ue170006Ev, symObjAddr: 0x43E4, symBinAddr: 0x10000839C, symSize: 0x24 }
  - { offsetInCU: 0xDD12, offset: 0xDD12, size: 0x8, addend: 0x0, symName: __ZNSt3__110unique_ptrINS_11__list_nodeINS_4pairINS_12basic_stringIcNS_11char_traitsIcEENS_9allocatorIcEEEES8_EEPvEENS_22__allocator_destructorINS6_ISB_EEEEE7releaseB8ue170006Ev, symObjAddr: 0x4408, symBinAddr: 0x1000083C0, symSize: 0x44 }
  - { offsetInCU: 0xDD46, offset: 0xDD46, size: 0x8, addend: 0x0, symName: __ZNSt3__110unique_ptrINS_11__list_nodeINS_4pairINS_12basic_stringIcNS_11char_traitsIcEENS_9allocatorIcEEEES8_EEPvEENS_22__allocator_destructorINS6_ISB_EEEEED1B8ue170006Ev, symObjAddr: 0x444C, symBinAddr: 0x100008404, symSize: 0x2C }
  - { offsetInCU: 0xDD6F, offset: 0xDD6F, size: 0x8, addend: 0x0, symName: __ZNSt3__116allocator_traitsINS_9allocatorINS_11__list_nodeINS_4pairINS_12basic_stringIcNS_11char_traitsIcEENS1_IcEEEES8_EEPvEEEEE8allocateB8ue170006ERSC_m, symObjAddr: 0x4478, symBinAddr: 0x100008430, symSize: 0x2C }
  - { offsetInCU: 0xDDA2, offset: 0xDDA2, size: 0x8, addend: 0x0, symName: __ZNSt3__122__allocator_destructorINS_9allocatorINS_11__list_nodeINS_4pairINS_12basic_stringIcNS_11char_traitsIcEENS1_IcEEEES8_EEPvEEEEEC1B8ue170006ERSC_m, symObjAddr: 0x44A4, symBinAddr: 0x10000845C, symSize: 0x3C }
  - { offsetInCU: 0xDDEC, offset: 0xDDEC, size: 0x8, addend: 0x0, symName: __ZNSt3__110unique_ptrINS_11__list_nodeINS_4pairINS_12basic_stringIcNS_11char_traitsIcEENS_9allocatorIcEEEES8_EEPvEENS_22__allocator_destructorINS6_ISB_EEEEEC1B8ue170006ILb1EvEEPSB_NS_16__dependent_typeINS_27__unique_ptr_deleter_sfinaeISE_EEXT_EE20__good_rval_ref_typeE, symObjAddr: 0x44E0, symBinAddr: 0x100008498, symSize: 0x3C }
  - { offsetInCU: 0xDE3C, offset: 0xDE3C, size: 0x8, addend: 0x0, symName: __ZNSt3__19allocatorINS_11__list_nodeINS_4pairINS_12basic_stringIcNS_11char_traitsIcEENS0_IcEEEES7_EEPvEEE8allocateB8ue170006Em, symObjAddr: 0x451C, symBinAddr: 0x1000084D4, symSize: 0x84 }
  - { offsetInCU: 0xDE6F, offset: 0xDE6F, size: 0x8, addend: 0x0, symName: __ZNSt3__116allocator_traitsINS_9allocatorINS_11__list_nodeINS_4pairINS_12basic_stringIcNS_11char_traitsIcEENS1_IcEEEES8_EEPvEEEEE8max_sizeB8ue170006ISC_vEEmRKSC_, symObjAddr: 0x45A0, symBinAddr: 0x100008558, symSize: 0x24 }
  - { offsetInCU: 0xDE9D, offset: 0xDE9D, size: 0x8, addend: 0x0, symName: __ZNKSt3__19allocatorINS_11__list_nodeINS_4pairINS_12basic_stringIcNS_11char_traitsIcEENS0_IcEEEES7_EEPvEEE8max_sizeB8ue170006Ev, symObjAddr: 0x45C4, symBinAddr: 0x10000857C, symSize: 0x14 }
  - { offsetInCU: 0xDEC2, offset: 0xDEC2, size: 0x8, addend: 0x0, symName: __ZNSt3__122__allocator_destructorINS_9allocatorINS_11__list_nodeINS_4pairINS_12basic_stringIcNS_11char_traitsIcEENS1_IcEEEES8_EEPvEEEEEC2B8ue170006ERSC_m, symObjAddr: 0x45D8, symBinAddr: 0x100008590, symSize: 0x2C }
  - { offsetInCU: 0xDF07, offset: 0xDF07, size: 0x8, addend: 0x0, symName: __ZNSt3__110unique_ptrINS_11__list_nodeINS_4pairINS_12basic_stringIcNS_11char_traitsIcEENS_9allocatorIcEEEES8_EEPvEENS_22__allocator_destructorINS6_ISB_EEEEEC2B8ue170006ILb1EvEEPSB_NS_16__dependent_typeINS_27__unique_ptr_deleter_sfinaeISE_EEXT_EE20__good_rval_ref_typeE, symObjAddr: 0x4604, symBinAddr: 0x1000085BC, symSize: 0x5C }
  - { offsetInCU: 0xDF57, offset: 0xDF57, size: 0x8, addend: 0x0, symName: __ZNSt3__117__compressed_pairIPNS_11__list_nodeINS_4pairINS_12basic_stringIcNS_11char_traitsIcEENS_9allocatorIcEEEES8_EEPvEENS_22__allocator_destructorINS6_ISB_EEEEEC1B8ue170006IRSC_SF_EEOT_OT0_, symObjAddr: 0x4660, symBinAddr: 0x100008618, symSize: 0x3C }
  - { offsetInCU: 0xDFAE, offset: 0xDFAE, size: 0x8, addend: 0x0, symName: __ZNSt3__117__compressed_pairIPNS_11__list_nodeINS_4pairINS_12basic_stringIcNS_11char_traitsIcEENS_9allocatorIcEEEES8_EEPvEENS_22__allocator_destructorINS6_ISB_EEEEEC2B8ue170006IRSC_SF_EEOT_OT0_, symObjAddr: 0x469C, symBinAddr: 0x100008654, symSize: 0x48 }
  - { offsetInCU: 0xE005, offset: 0xE005, size: 0x8, addend: 0x0, symName: __ZNSt3__122__compressed_pair_elemIPNS_11__list_nodeINS_4pairINS_12basic_stringIcNS_11char_traitsIcEENS_9allocatorIcEEEES8_EEPvEELi0ELb0EEC2B8ue170006IRSC_vEEOT_, symObjAddr: 0x46E4, symBinAddr: 0x10000869C, symSize: 0x24 }
  - { offsetInCU: 0xE046, offset: 0xE046, size: 0x8, addend: 0x0, symName: __ZNSt3__122__compressed_pair_elemINS_22__allocator_destructorINS_9allocatorINS_11__list_nodeINS_4pairINS_12basic_stringIcNS_11char_traitsIcEENS2_IcEEEES9_EEPvEEEEEELi1ELb0EEC2B8ue170006ISE_vEEOT_, symObjAddr: 0x4708, symBinAddr: 0x1000086C0, symSize: 0x24 }
  - { offsetInCU: 0xE087, offset: 0xE087, size: 0x8, addend: 0x0, symName: __ZNSt3__19allocatorINS_11__list_nodeINS_4pairINS_12basic_stringIcNS_11char_traitsIcEENS0_IcEEEES7_EEPvEEE9constructB8ue170006IS8_JRKS8_EEEvPT_DpOT0_, symObjAddr: 0x472C, symBinAddr: 0x1000086E4, symSize: 0x30 }
  - { offsetInCU: 0xE0DC, offset: 0xE0DC, size: 0x8, addend: 0x0, symName: __ZNSt3__14pairINS_12basic_stringIcNS_11char_traitsIcEENS_9allocatorIcEEEES6_EC1B8ue170006ERKS7_, symObjAddr: 0x475C, symBinAddr: 0x100008714, symSize: 0x34 }
  - { offsetInCU: 0xE110, offset: 0xE110, size: 0x8, addend: 0x0, symName: __ZNSt3__14pairINS_12basic_stringIcNS_11char_traitsIcEENS_9allocatorIcEEEES6_EC2B8ue170006ERKS7_, symObjAddr: 0x4790, symBinAddr: 0x100008748, symSize: 0x78 }
  - { offsetInCU: 0xE144, offset: 0xE144, size: 0x8, addend: 0x0, symName: __ZNKSt3__117__compressed_pairIPNS_11__list_nodeINS_4pairINS_12basic_stringIcNS_11char_traitsIcEENS_9allocatorIcEEEES8_EEPvEENS_22__allocator_destructorINS6_ISB_EEEEE5firstB8ue170006Ev, symObjAddr: 0x4808, symBinAddr: 0x1000087C0, symSize: 0x24 }
  - { offsetInCU: 0xE169, offset: 0xE169, size: 0x8, addend: 0x0, symName: __ZNKSt3__122__compressed_pair_elemIPNS_11__list_nodeINS_4pairINS_12basic_stringIcNS_11char_traitsIcEENS_9allocatorIcEEEES8_EEPvEELi0ELb0EE5__getB8ue170006Ev, symObjAddr: 0x482C, symBinAddr: 0x1000087E4, symSize: 0x14 }
  - { offsetInCU: 0xE18E, offset: 0xE18E, size: 0x8, addend: 0x0, symName: __ZNSt3__117__compressed_pairIPNS_11__list_nodeINS_4pairINS_12basic_stringIcNS_11char_traitsIcEENS_9allocatorIcEEEES8_EEPvEENS_22__allocator_destructorINS6_ISB_EEEEE5firstB8ue170006Ev, symObjAddr: 0x4840, symBinAddr: 0x1000087F8, symSize: 0x24 }
  - { offsetInCU: 0xE1B3, offset: 0xE1B3, size: 0x8, addend: 0x0, symName: __ZNSt3__122__compressed_pair_elemIPNS_11__list_nodeINS_4pairINS_12basic_stringIcNS_11char_traitsIcEENS_9allocatorIcEEEES8_EEPvEELi0ELb0EE5__getB8ue170006Ev, symObjAddr: 0x4864, symBinAddr: 0x10000881C, symSize: 0x14 }
  - { offsetInCU: 0xE1D8, offset: 0xE1D8, size: 0x8, addend: 0x0, symName: __ZNSt3__110unique_ptrINS_11__list_nodeINS_4pairINS_12basic_stringIcNS_11char_traitsIcEENS_9allocatorIcEEEES8_EEPvEENS_22__allocator_destructorINS6_ISB_EEEEED2B8ue170006Ev, symObjAddr: 0x4878, symBinAddr: 0x100008830, symSize: 0x30 }
  - { offsetInCU: 0xE201, offset: 0xE201, size: 0x8, addend: 0x0, symName: __ZNSt3__110unique_ptrINS_11__list_nodeINS_4pairINS_12basic_stringIcNS_11char_traitsIcEENS_9allocatorIcEEEES8_EEPvEENS_22__allocator_destructorINS6_ISB_EEEEE5resetB8ue170006EPSB_, symObjAddr: 0x48A8, symBinAddr: 0x100008860, symSize: 0x78 }
  - { offsetInCU: 0xE244, offset: 0xE244, size: 0x8, addend: 0x0, symName: __ZNSt3__117__compressed_pairIPNS_11__list_nodeINS_4pairINS_12basic_stringIcNS_11char_traitsIcEENS_9allocatorIcEEEES8_EEPvEENS_22__allocator_destructorINS6_ISB_EEEEE6secondB8ue170006Ev, symObjAddr: 0x4920, symBinAddr: 0x1000088D8, symSize: 0x28 }
  - { offsetInCU: 0xE269, offset: 0xE269, size: 0x8, addend: 0x0, symName: __ZNSt3__122__allocator_destructorINS_9allocatorINS_11__list_nodeINS_4pairINS_12basic_stringIcNS_11char_traitsIcEENS1_IcEEEES8_EEPvEEEEEclB8ue170006EPSB_, symObjAddr: 0x4948, symBinAddr: 0x100008900, symSize: 0x34 }
  - { offsetInCU: 0xE29C, offset: 0xE29C, size: 0x8, addend: 0x0, symName: __ZNSt3__122__compressed_pair_elemINS_22__allocator_destructorINS_9allocatorINS_11__list_nodeINS_4pairINS_12basic_stringIcNS_11char_traitsIcEENS2_IcEEEES9_EEPvEEEEEELi1ELb0EE5__getB8ue170006Ev, symObjAddr: 0x497C, symBinAddr: 0x100008934, symSize: 0x14 }
  - { offsetInCU: 0xE2C1, offset: 0xE2C1, size: 0x8, addend: 0x0, symName: __ZNSt3__112basic_stringIcNS_11char_traitsIcEENS_9allocatorIcEEEC2B8ue170006ILi0EEEPKc, symObjAddr: 0x4990, symBinAddr: 0x100008948, symSize: 0x58 }
  - { offsetInCU: 0xE2FF, offset: 0xE2FF, size: 0x8, addend: 0x0, symName: __ZNSt3__14pairINS_12basic_stringIcNS_11char_traitsIcEENS_9allocatorIcEEEES6_EC2B8ue170006ERKS6_S9_, symObjAddr: 0x49E8, symBinAddr: 0x1000089A0, symSize: 0x78 }
  - { offsetInCU: 0xE344, offset: 0xE344, size: 0x8, addend: 0x0, symName: __ZNSt3__121__list_const_iteratorINS_4pairIiNS_4listINS1_INS_12basic_stringIcNS_11char_traitsIcEENS_9allocatorIcEEEES8_EENS6_IS9_EEEEEEPvEC2B8ue170006ERKNS_15__list_iteratorISC_SD_EE, symObjAddr: 0x4A60, symBinAddr: 0x100008A18, symSize: 0x24 }
  - { offsetInCU: 0xE37C, offset: 0xE37C, size: 0x8, addend: 0x0, symName: __ZNSt3__14listINS_4pairINS_12basic_stringIcNS_11char_traitsIcEENS_9allocatorIcEEEES7_EENS5_IS8_EEE5beginB8ue170006Ev, symObjAddr: 0x4A84, symBinAddr: 0x100008A3C, symSize: 0x2C }
  - { offsetInCU: 0xE3A1, offset: 0xE3A1, size: 0x8, addend: 0x0, symName: __ZNSt3__110__list_impINS_4pairINS_12basic_stringIcNS_11char_traitsIcEENS_9allocatorIcEEEES7_EENS5_IS8_EEE5beginB8ue170006Ev, symObjAddr: 0x4AB0, symBinAddr: 0x100008A68, symSize: 0x30 }
  - { offsetInCU: 0xE3C6, offset: 0xE3C6, size: 0x8, addend: 0x0, symName: __ZNSt3__115__list_iteratorINS_4pairINS_12basic_stringIcNS_11char_traitsIcEENS_9allocatorIcEEEES7_EEPvEC1B8ue170006EPNS_16__list_node_baseIS8_S9_EE, symObjAddr: 0x4AE0, symBinAddr: 0x100008A98, symSize: 0x34 }
  - { offsetInCU: 0xE3FE, offset: 0xE3FE, size: 0x8, addend: 0x0, symName: __ZNSt3__115__list_iteratorINS_4pairINS_12basic_stringIcNS_11char_traitsIcEENS_9allocatorIcEEEES7_EEPvEC2B8ue170006EPNS_16__list_node_baseIS8_S9_EE, symObjAddr: 0x4B14, symBinAddr: 0x100008ACC, symSize: 0x20 }
  - { offsetInCU: 0xE436, offset: 0xE436, size: 0x8, addend: 0x0, symName: __ZNSt3__14listINS_4pairINS_12basic_stringIcNS_11char_traitsIcEENS_9allocatorIcEEEES7_EENS5_IS8_EEE3endB8ue170006Ev, symObjAddr: 0x4B34, symBinAddr: 0x100008AEC, symSize: 0x2C }
  - { offsetInCU: 0xE45B, offset: 0xE45B, size: 0x8, addend: 0x0, symName: __ZNSt3__110__list_impINS_4pairINS_12basic_stringIcNS_11char_traitsIcEENS_9allocatorIcEEEES7_EENS5_IS8_EEE3endB8ue170006Ev, symObjAddr: 0x4B60, symBinAddr: 0x100008B18, symSize: 0x34 }
  - { offsetInCU: 0xE480, offset: 0xE480, size: 0x8, addend: 0x0, symName: __ZNSt3__115__list_iteratorINS_4pairINS_12basic_stringIcNS_11char_traitsIcEENS_9allocatorIcEEEES7_EEPvEppB8ue170006Ev, symObjAddr: 0x4BC4, symBinAddr: 0x100008B7C, symSize: 0x20 }
  - { offsetInCU: 0xE4A5, offset: 0xE4A5, size: 0x8, addend: 0x0, symName: __ZNSt3__114pointer_traitsIPNS_4pairINS_12basic_stringIcNS_11char_traitsIcEENS_9allocatorIcEEEES7_EEE10pointer_toB8ue170006ERS8_, symObjAddr: 0x4BE4, symBinAddr: 0x100008B9C, symSize: 0x14 }
  - { offsetInCU: 0xE4C8, offset: 0xE4C8, size: 0x8, addend: 0x0, symName: __ZNKSt3__112basic_stringIcNS_11char_traitsIcEENS_9allocatorIcEEE4sizeB8ue170006Ev, symObjAddr: 0x4BF8, symBinAddr: 0x100008BB0, symSize: 0x54 }
  - { offsetInCU: 0xE4ED, offset: 0xE4ED, size: 0x8, addend: 0x0, symName: __ZNKSt3__112basic_stringIcNS_11char_traitsIcEENS_9allocatorIcEEE15__get_long_sizeB8ue170006Ev, symObjAddr: 0x4C4C, symBinAddr: 0x100008C04, symSize: 0x28 }
  - { offsetInCU: 0xE512, offset: 0xE512, size: 0x8, addend: 0x0, symName: __ZNKSt3__112basic_stringIcNS_11char_traitsIcEENS_9allocatorIcEEE16__get_short_sizeB8ue170006Ev, symObjAddr: 0x4C74, symBinAddr: 0x100008C2C, symSize: 0x34 }
  - { offsetInCU: 0xE537, offset: 0xE537, size: 0x8, addend: 0x0, symName: __ZNSt3__111char_traitsIcE7compareB8ue170006EPKcS3_m, symObjAddr: 0x4CA8, symBinAddr: 0x100008C60, symSize: 0x64 }
  - { offsetInCU: 0xE576, offset: 0xE576, size: 0x8, addend: 0x0, symName: __ZNSt3__112basic_stringIcNS_11char_traitsIcEENS_9allocatorIcEEEC2B8ue170006Ev, symObjAddr: 0x4D0C, symBinAddr: 0x100008CC4, symSize: 0x3C }
  - { offsetInCU: 0xE59F, offset: 0xE59F, size: 0x8, addend: 0x0, symName: __ZNSt3__112basic_stringIcNS_11char_traitsIcEENS_9allocatorIcEEE14__default_initB8ue170006Ev, symObjAddr: 0x4D48, symBinAddr: 0x100008D00, symSize: 0xB0 }
  - { offsetInCU: 0xE5F1, offset: 0xE5F1, size: 0x8, addend: 0x0, symName: __ZNSt3__117__compressed_pairINS_12basic_stringIcNS_11char_traitsIcEENS_9allocatorIcEEE5__repES5_E5firstB8ue170006Ev, symObjAddr: 0x4DF8, symBinAddr: 0x100008DB0, symSize: 0x24 }
  - { offsetInCU: 0xE616, offset: 0xE616, size: 0x8, addend: 0x0, symName: __ZNSt3__112basic_stringIcNS_11char_traitsIcEENS_9allocatorIcEEE11__recommendB8ue170006Em, symObjAddr: 0x4E1C, symBinAddr: 0x100008DD4, symSize: 0x9C }
  - { offsetInCU: 0xE649, offset: 0xE649, size: 0x8, addend: 0x0, symName: __ZNSt3__116allocator_traitsINS_9allocatorIcEEE8allocateB8ue170006ERS2_m, symObjAddr: 0x4EB8, symBinAddr: 0x100008E70, symSize: 0x2C }
  - { offsetInCU: 0xE67C, offset: 0xE67C, size: 0x8, addend: 0x0, symName: __ZNSt3__112basic_stringIcNS_11char_traitsIcEENS_9allocatorIcEEE7__allocB8ue170006Ev, symObjAddr: 0x4EE4, symBinAddr: 0x100008E9C, symSize: 0x24 }
  - { offsetInCU: 0xE6A1, offset: 0xE6A1, size: 0x8, addend: 0x0, symName: __ZNSt3__112basic_stringIcNS_11char_traitsIcEENS_9allocatorIcEEE16__begin_lifetimeB8ue170006EPcm, symObjAddr: 0x4F08, symBinAddr: 0x100008EC0, symSize: 0x14 }
  - { offsetInCU: 0xE6D4, offset: 0xE6D4, size: 0x8, addend: 0x0, symName: __ZNSt3__112basic_stringIcNS_11char_traitsIcEENS_9allocatorIcEEE18__set_long_pointerB8ue170006EPc, symObjAddr: 0x4F1C, symBinAddr: 0x100008ED4, symSize: 0x38 }
  - { offsetInCU: 0xE708, offset: 0xE708, size: 0x8, addend: 0x0, symName: __ZNSt3__112basic_stringIcNS_11char_traitsIcEENS_9allocatorIcEEE14__set_long_capB8ue170006Em, symObjAddr: 0x4F54, symBinAddr: 0x100008F0C, symSize: 0x70 }
  - { offsetInCU: 0xE73C, offset: 0xE73C, size: 0x8, addend: 0x0, symName: __ZNSt3__112basic_stringIcNS_11char_traitsIcEENS_9allocatorIcEEE15__set_long_sizeB8ue170006Em, symObjAddr: 0x4FC4, symBinAddr: 0x100008F7C, symSize: 0x38 }
  - { offsetInCU: 0xE770, offset: 0xE770, size: 0x8, addend: 0x0, symName: __ZNSt3__122__compressed_pair_elemINS_12basic_stringIcNS_11char_traitsIcEENS_9allocatorIcEEE5__repELi0ELb0EE5__getB8ue170006Ev, symObjAddr: 0x4FFC, symBinAddr: 0x100008FB4, symSize: 0x14 }
  - { offsetInCU: 0xE795, offset: 0xE795, size: 0x8, addend: 0x0, symName: __ZNSt3__112basic_stringIcNS_11char_traitsIcEENS_9allocatorIcEEE10__align_itB8ue170006ILm16EEEmm, symObjAddr: 0x5010, symBinAddr: 0x100008FC8, symSize: 0x1C }
  - { offsetInCU: 0xE7C3, offset: 0xE7C3, size: 0x8, addend: 0x0, symName: __ZNSt3__19allocatorIcE8allocateB8ue170006Em, symObjAddr: 0x502C, symBinAddr: 0x100008FE4, symSize: 0x84 }
  - { offsetInCU: 0xE800, offset: 0xE800, size: 0x8, addend: 0x0, symName: __ZNSt3__116allocator_traitsINS_9allocatorIcEEE8max_sizeB8ue170006IS2_vEEmRKS2_, symObjAddr: 0x50B0, symBinAddr: 0x100009068, symSize: 0x24 }
  - { offsetInCU: 0xE82E, offset: 0xE82E, size: 0x8, addend: 0x0, symName: __ZNKSt3__19allocatorIcE8max_sizeB8ue170006Ev, symObjAddr: 0x50D4, symBinAddr: 0x10000908C, symSize: 0x14 }
  - { offsetInCU: 0xE853, offset: 0xE853, size: 0x8, addend: 0x0, symName: __ZNSt3__117__compressed_pairINS_12basic_stringIcNS_11char_traitsIcEENS_9allocatorIcEEE5__repES5_E6secondB8ue170006Ev, symObjAddr: 0x50E8, symBinAddr: 0x1000090A0, symSize: 0x24 }
  - { offsetInCU: 0xE878, offset: 0xE878, size: 0x8, addend: 0x0, symName: __ZNSt3__122__compressed_pair_elemINS_9allocatorIcEELi1ELb1EE5__getB8ue170006Ev, symObjAddr: 0x510C, symBinAddr: 0x1000090C4, symSize: 0x14 }
  - { offsetInCU: 0x3A28, offset: 0x123D7, size: 0x8, addend: 0x0, symName: __ZNSt3__16copy_nB8ue170006IPKcmPcEENS_9enable_ifIXsr37__has_random_access_iterator_categoryIT_EE5valueET1_E4typeES5_T0_S6_, symObjAddr: 0x2E64, symBinAddr: 0x10000AC8C, symSize: 0x44 }
  - { offsetInCU: 0x49A6, offset: 0x13355, size: 0x8, addend: 0x0, symName: __ZNSt3__1plB8ue170006IcNS_11char_traitsIcEENS_9allocatorIcEEEENS_12basic_stringIT_T0_T1_EERKS9_PKS6_, symObjAddr: 0x9B4, symBinAddr: 0x1000099A0, symSize: 0x11C }
  - { offsetInCU: 0x4A47, offset: 0x133F6, size: 0x8, addend: 0x0, symName: __ZNSt3__14endsB8ue170006IcNS_11char_traitsIcEEEERNS_13basic_ostreamIT_T0_EES7_, symObjAddr: 0xAD0, symBinAddr: 0x100009ABC, symSize: 0x2C }
  - { offsetInCU: 0x4A87, offset: 0x13436, size: 0x8, addend: 0x0, symName: __ZNSt3__1rsB8ue170006IcNS_11char_traitsIcEENS_9allocatorIcEEEERNS_13basic_istreamIT_T0_EES9_RNS_12basic_stringIS6_S7_T1_EE, symObjAddr: 0xAFC, symBinAddr: 0x100009AE8, symSize: 0x314 }
  - { offsetInCU: 0x4B54, offset: 0x13503, size: 0x8, addend: 0x0, symName: __ZNSt3__19remove_ifB8ue170006INS_11__wrap_iterIPcEEPFiiEEET_S6_S6_T0_, symObjAddr: 0xEA8, symBinAddr: 0x100009E94, symSize: 0x114 }
  - { offsetInCU: 0x4BEB, offset: 0x1359A, size: 0x8, addend: 0x0, symName: __ZNSt3__19transformB8ue170006INS_11__wrap_iterIPcEES3_PFiiEEET0_T_S7_S6_T1_, symObjAddr: 0x10D4, symBinAddr: 0x10000A0C0, symSize: 0x98 }
  - { offsetInCU: 0x4C5C, offset: 0x1360B, size: 0x8, addend: 0x0, symName: __ZNSt3__1neB8ue170006IcNS_11char_traitsIcEENS_9allocatorIcEEEEbRKNS_12basic_stringIT_T0_T1_EEPKS6_, symObjAddr: 0x1190, symBinAddr: 0x10000A17C, symSize: 0x34 }
  - { offsetInCU: 0x4CB4, offset: 0x13663, size: 0x8, addend: 0x0, symName: __ZNSt3__112__to_addressB8ue170006IcEEPT_S2_, symObjAddr: 0x27F4, symBinAddr: 0x10000A678, symSize: 0x14 }
  - { offsetInCU: 0x4EF5, offset: 0x138A4, size: 0x8, addend: 0x0, symName: __ZNSt3__120__throw_length_errorB8ue170006EPKc, symObjAddr: 0x2D1C, symBinAddr: 0x10000AB44, symSize: 0x64 }
  - { offsetInCU: 0x4F53, offset: 0x13902, size: 0x8, addend: 0x0, symName: __ZNSt3__14copyB8ue170006IPKcPcEET0_T_S5_S4_, symObjAddr: 0x2EA8, symBinAddr: 0x10000ACD0, symSize: 0x40 }
  - { offsetInCU: 0x4FAD, offset: 0x1395C, size: 0x8, addend: 0x0, symName: __ZNSt3__16__copyB8ue170006INS_17_ClassicAlgPolicyEPKcS3_PcEENS_4pairIT0_T2_EES6_T1_S7_, symObjAddr: 0x2EE8, symBinAddr: 0x10000AD10, symSize: 0x44 }
  - { offsetInCU: 0x5019, offset: 0x139C8, size: 0x8, addend: 0x0, symName: __ZNSt3__123__dispatch_copy_or_moveB8ue170006INS_17_ClassicAlgPolicyENS_11__copy_loopIS1_EENS_14__copy_trivialEPKcS6_PcEENS_4pairIT2_T4_EES9_T3_SA_, symObjAddr: 0x2F2C, symBinAddr: 0x10000AD54, symSize: 0x44 }
  - { offsetInCU: 0x5097, offset: 0x13A46, size: 0x8, addend: 0x0, symName: __ZNSt3__121__unwrap_and_dispatchB8ue170006INS_10__overloadINS_11__copy_loopINS_17_ClassicAlgPolicyEEENS_14__copy_trivialEEEPKcS8_PcLi0EEENS_4pairIT0_T2_EESB_T1_SC_, symObjAddr: 0x2F70, symBinAddr: 0x10000AD98, symSize: 0xB4 }
  - { offsetInCU: 0x5127, offset: 0x13AD6, size: 0x8, addend: 0x0, symName: __ZNSt3__114__unwrap_rangeB8ue170006IPKcS2_EENS_4pairIT0_S4_EET_S6_, symObjAddr: 0x3024, symBinAddr: 0x10000AE4C, symSize: 0x60 }
  - { offsetInCU: 0x5266, offset: 0x13C15, size: 0x8, addend: 0x0, symName: __ZNSt3__113__unwrap_iterB8ue170006IPcNS_18__unwrap_iter_implIS1_Lb1EEELi0EEEDTclsrT0_8__unwrapclsr3stdE7declvalIT_EEEES5_, symObjAddr: 0x30CC, symBinAddr: 0x10000AEF4, symSize: 0x24 }
  - { offsetInCU: 0x52AA, offset: 0x13C59, size: 0x8, addend: 0x0, symName: __ZNSt3__19make_pairB8ue170006IPKcPcEENS_4pairINS_18__unwrap_ref_decayIT_E4typeENS5_IT0_E4typeEEEOS6_OS9_, symObjAddr: 0x30F0, symBinAddr: 0x10000AF18, symSize: 0x38 }
  - { offsetInCU: 0x52F9, offset: 0x13CA8, size: 0x8, addend: 0x0, symName: __ZNSt3__114__rewrap_rangeB8ue170006IPKcS2_EET_S3_T0_, symObjAddr: 0x3128, symBinAddr: 0x10000AF50, symSize: 0x2C }
  - { offsetInCU: 0x5345, offset: 0x13CF4, size: 0x8, addend: 0x0, symName: __ZNSt3__113__rewrap_iterB8ue170006IPcS1_NS_18__unwrap_iter_implIS1_Lb1EEEEET_S4_T0_, symObjAddr: 0x3154, symBinAddr: 0x10000AF7C, symSize: 0x50 }
  - { offsetInCU: 0x539A, offset: 0x13D49, size: 0x8, addend: 0x0, symName: __ZNSt3__19make_pairB8ue170006IPKcS2_EENS_4pairINS_18__unwrap_ref_decayIT_E4typeENS4_IT0_E4typeEEEOS5_OS8_, symObjAddr: 0x31A4, symBinAddr: 0x10000AFCC, symSize: 0x38 }
  - { offsetInCU: 0x53E9, offset: 0x13D98, size: 0x8, addend: 0x0, symName: __ZNSt3__113__unwrap_iterB8ue170006IPKcNS_18__unwrap_iter_implIS2_Lb1EEELi0EEEDTclsrT0_8__unwrapclsr3stdE7declvalIT_EEEES6_, symObjAddr: 0x31DC, symBinAddr: 0x10000B004, symSize: 0x24 }
  - { offsetInCU: 0x552E, offset: 0x13EDD, size: 0x8, addend: 0x0, symName: __ZNSt3__119__copy_trivial_implB8ue170006IKccEENS_4pairIPT_PT0_EES4_S4_S6_, symObjAddr: 0x3294, symBinAddr: 0x10000B0BC, symSize: 0x78 }
  - { offsetInCU: 0x5597, offset: 0x13F46, size: 0x8, addend: 0x0, symName: __ZNSt3__119__constexpr_memmoveB8ue170006IcKcLi0EEEPT_S3_PT0_NS_15__element_countE, symObjAddr: 0x330C, symBinAddr: 0x10000B134, symSize: 0xA0 }
  - { offsetInCU: 0x5606, offset: 0x13FB5, size: 0x8, addend: 0x0, symName: __ZNSt3__19make_pairB8ue170006IRPKcPcEENS_4pairINS_18__unwrap_ref_decayIT_E4typeENS6_IT0_E4typeEEEOS7_OSA_, symObjAddr: 0x33AC, symBinAddr: 0x10000B1D4, symSize: 0x38 }
  - { offsetInCU: 0x56A9, offset: 0x14058, size: 0x8, addend: 0x0, symName: __ZNSt3__113__rewrap_iterB8ue170006IPKcS2_NS_18__unwrap_iter_implIS2_Lb1EEEEET_S5_T0_, symObjAddr: 0x3478, symBinAddr: 0x10000B2A0, symSize: 0x50 }
  - { offsetInCU: 0x56FE, offset: 0x140AD, size: 0x8, addend: 0x0, symName: __ZNSt3__16fill_nB8ue170006IPcmcEET_S2_T0_RKT1_, symObjAddr: 0x3558, symBinAddr: 0x10000B380, symSize: 0x44 }
  - { offsetInCU: 0x5761, offset: 0x14110, size: 0x8, addend: 0x0, symName: __ZNSt3__18__fill_nB8ue170006IPcmcEET_S2_T0_RKT1_, symObjAddr: 0x359C, symBinAddr: 0x10000B3C4, symSize: 0x64 }
  - { offsetInCU: 0x57C4, offset: 0x14173, size: 0x8, addend: 0x0, symName: __ZNSt3__121__convert_to_integralB8ue170006Em, symObjAddr: 0x3600, symBinAddr: 0x10000B428, symSize: 0x14 }
  - { offsetInCU: 0x5F86, offset: 0x14935, size: 0x8, addend: 0x0, symName: __ZNSt3__17find_ifB8ue170006INS_11__wrap_iterIPcEERPFiiEEET_S7_S7_T0_, symObjAddr: 0x399C, symBinAddr: 0x10000B7C4, symSize: 0x8C }
  - { offsetInCU: 0x5FE0, offset: 0x1498F, size: 0x8, addend: 0x0, symName: __ZNSt3__1neB8ue170006IPcEEbRKNS_11__wrap_iterIT_EES6_, symObjAddr: 0x3A28, symBinAddr: 0x10000B850, symSize: 0x34 }
  - { offsetInCU: 0x6023, offset: 0x149D2, size: 0x8, addend: 0x0, symName: __ZNSt3__1eqB8ue170006IPcEEbRKNS_11__wrap_iterIT_EES6_, symObjAddr: 0x3A94, symBinAddr: 0x10000B8BC, symSize: 0x48 }
  - { offsetInCU: 0x6066, offset: 0x14A15, size: 0x8, addend: 0x0, symName: __ZNSt3__1miB8ue170006IPKcPcEENS_11__wrap_iterIT_E15difference_typeERKS6_RKNS4_IT0_EE, symObjAddr: 0x3AF4, symBinAddr: 0x10000B91C, symSize: 0x40 }
  - { offsetInCU: 0x60B2, offset: 0x14A61, size: 0x8, addend: 0x0, symName: __ZNSt3__1miB8ue170006IPKcS2_EENS_11__wrap_iterIT_E15difference_typeERKS5_RKNS3_IT0_EE, symObjAddr: 0x3B34, symBinAddr: 0x10000B95C, symSize: 0x40 }
  - { offsetInCU: 0x6C52, offset: 0x15601, size: 0x8, addend: 0x0, symName: __Z7isspacei, symObjAddr: 0x1070, symBinAddr: 0x10000A05C, symSize: 0x28 }
  - { offsetInCU: 0x6CC2, offset: 0x15671, size: 0x8, addend: 0x0, symName: __Z7toupperi, symObjAddr: 0x116C, symBinAddr: 0x10000A158, symSize: 0x24 }
  - { offsetInCU: 0x8468, offset: 0x16E17, size: 0x8, addend: 0x0, symName: __ZN17CustomerDashboardC2Ev, symObjAddr: 0x0, symBinAddr: 0x100009170, symSize: 0x830 }
  - { offsetInCU: 0x8497, offset: 0x16E46, size: 0x8, addend: 0x0, symName: __ZNSt3__112basic_stringIcNS_11char_traitsIcEENS_9allocatorIcEEE5eraseB8ue170006ENS_11__wrap_iterIPKcEES9_, symObjAddr: 0xE10, symBinAddr: 0x100009DFC, symSize: 0x98 }
  - { offsetInCU: 0x84FA, offset: 0x16EA9, size: 0x8, addend: 0x0, symName: __ZNSt3__112basic_stringIcNS_11char_traitsIcEENS_9allocatorIcEEE5beginB8ue170006Ev, symObjAddr: 0xFBC, symBinAddr: 0x100009FA8, symSize: 0x60 }
  - { offsetInCU: 0x851F, offset: 0x16ECE, size: 0x8, addend: 0x0, symName: __ZNSt3__112basic_stringIcNS_11char_traitsIcEENS_9allocatorIcEEE3endB8ue170006Ev, symObjAddr: 0x101C, symBinAddr: 0x10000A008, symSize: 0x54 }
  - { offsetInCU: 0x854E, offset: 0x16EFD, size: 0x8, addend: 0x0, symName: __ZNSt3__111__wrap_iterIPKcEC1B8ue170006IPcEERKNS0_IT_EEPNS_9enable_ifIXsr14is_convertibleIS6_S2_EE5valueEvE4typeE, symObjAddr: 0x1098, symBinAddr: 0x10000A084, symSize: 0x3C }
  - { offsetInCU: 0x85E9, offset: 0x16F98, size: 0x8, addend: 0x0, symName: __ZN7DepositD1Ev, symObjAddr: 0x1284, symBinAddr: 0x10000A1B0, symSize: 0x2C }
  - { offsetInCU: 0x8663, offset: 0x17012, size: 0x8, addend: 0x0, symName: __ZN10WithdrawalD1Ev, symObjAddr: 0x12B0, symBinAddr: 0x10000A1DC, symSize: 0x2C }
  - { offsetInCU: 0x871E, offset: 0x170CD, size: 0x8, addend: 0x0, symName: __ZN8TransferD1Ev, symObjAddr: 0x12DC, symBinAddr: 0x10000A208, symSize: 0x2C }
  - { offsetInCU: 0x877D, offset: 0x1712C, size: 0x8, addend: 0x0, symName: __ZN14CustomerSignInD1Ev, symObjAddr: 0x1308, symBinAddr: 0x10000A234, symSize: 0x2C }
  - { offsetInCU: 0x87A7, offset: 0x17156, size: 0x8, addend: 0x0, symName: __ZN17CustomerDashboardC1Ev, symObjAddr: 0x1334, symBinAddr: 0x10000A260, symSize: 0x2C }
  - { offsetInCU: 0x87D0, offset: 0x1717F, size: 0x8, addend: 0x0, symName: __Z8__istypeim, symObjAddr: 0x1360, symBinAddr: 0x10000A28C, symSize: 0x8C }
  - { offsetInCU: 0x880A, offset: 0x171B9, size: 0x8, addend: 0x0, symName: __Z7isasciii, symObjAddr: 0x13EC, symBinAddr: 0x10000A318, symSize: 0x24 }
  - { offsetInCU: 0x8837, offset: 0x171E6, size: 0x8, addend: 0x0, symName: __ZN7DepositD2Ev, symObjAddr: 0x1410, symBinAddr: 0x10000A33C, symSize: 0x98 }
  - { offsetInCU: 0x8861, offset: 0x17210, size: 0x8, addend: 0x0, symName: __ZN10WithdrawalD2Ev, symObjAddr: 0x14A8, symBinAddr: 0x10000A3D4, symSize: 0x98 }
  - { offsetInCU: 0x888B, offset: 0x1723A, size: 0x8, addend: 0x0, symName: __ZN8TransferD2Ev, symObjAddr: 0x1540, symBinAddr: 0x10000A46C, symSize: 0x170 }
  - { offsetInCU: 0x88B5, offset: 0x17264, size: 0x8, addend: 0x0, symName: __ZN14CustomerSignInD2Ev, symObjAddr: 0x16B0, symBinAddr: 0x10000A5DC, symSize: 0x2C }
  - { offsetInCU: 0x8911, offset: 0x172C0, size: 0x8, addend: 0x0, symName: __ZNSt3__116allocator_traitsINS_9allocatorIcEEE37select_on_container_copy_constructionB8ue170006IS2_vvEES2_RKS2_, symObjAddr: 0x2784, symBinAddr: 0x10000A608, symSize: 0x10 }
  - { offsetInCU: 0x8940, offset: 0x172EF, size: 0x8, addend: 0x0, symName: __ZNKSt3__112basic_stringIcNS_11char_traitsIcEENS_9allocatorIcEEE13get_allocatorB8ue170006Ev, symObjAddr: 0x2794, symBinAddr: 0x10000A618, symSize: 0x24 }
  - { offsetInCU: 0x8965, offset: 0x17314, size: 0x8, addend: 0x0, symName: __ZNSt3__112basic_stringIcNS_11char_traitsIcEENS_9allocatorIcEEEC1B8ue170006ENS_24__uninitialized_size_tagEmRKS4_, symObjAddr: 0x27B8, symBinAddr: 0x10000A63C, symSize: 0x3C }
  - { offsetInCU: 0x89B8, offset: 0x17367, size: 0x8, addend: 0x0, symName: __ZNSt3__112basic_stringIcNS_11char_traitsIcEENS_9allocatorIcEEE13__get_pointerB8ue170006Ev, symObjAddr: 0x2808, symBinAddr: 0x10000A68C, symSize: 0x54 }
  - { offsetInCU: 0x89DD, offset: 0x1738C, size: 0x8, addend: 0x0, symName: __ZNSt3__111char_traitsIcE4copyB8ue170006EPcPKcm, symObjAddr: 0x285C, symBinAddr: 0x10000A6E0, symSize: 0x64 }
  - { offsetInCU: 0x8A1C, offset: 0x173CB, size: 0x8, addend: 0x0, symName: __ZNSt3__111char_traitsIcE6assignB8ue170006EPcmc, symObjAddr: 0x28C0, symBinAddr: 0x10000A744, symSize: 0x58 }
  - { offsetInCU: 0x8A5B, offset: 0x1740A, size: 0x8, addend: 0x0, symName: __ZNKSt3__112basic_stringIcNS_11char_traitsIcEENS_9allocatorIcEEE7__allocB8ue170006Ev, symObjAddr: 0x2974, symBinAddr: 0x10000A79C, symSize: 0x24 }
  - { offsetInCU: 0x8A80, offset: 0x1742F, size: 0x8, addend: 0x0, symName: __ZNKSt3__117__compressed_pairINS_12basic_stringIcNS_11char_traitsIcEENS_9allocatorIcEEE5__repES5_E6secondB8ue170006Ev, symObjAddr: 0x2998, symBinAddr: 0x10000A7C0, symSize: 0x24 }
  - { offsetInCU: 0x8AA5, offset: 0x17454, size: 0x8, addend: 0x0, symName: __ZNKSt3__122__compressed_pair_elemINS_9allocatorIcEELi1ELb1EE5__getB8ue170006Ev, symObjAddr: 0x29BC, symBinAddr: 0x10000A7E4, symSize: 0x14 }
  - { offsetInCU: 0x8ACA, offset: 0x17479, size: 0x8, addend: 0x0, symName: __ZNSt3__112basic_stringIcNS_11char_traitsIcEENS_9allocatorIcEEEC2B8ue170006ENS_24__uninitialized_size_tagEmRKS4_, symObjAddr: 0x29D0, symBinAddr: 0x10000A7F8, symSize: 0x110 }
  - { offsetInCU: 0x8B4A, offset: 0x174F9, size: 0x8, addend: 0x0, symName: __ZNSt3__117__compressed_pairINS_12basic_stringIcNS_11char_traitsIcEENS_9allocatorIcEEE5__repES5_EC1B8ue170006INS_18__default_init_tagERKS5_EEOT_OT0_, symObjAddr: 0x2AE0, symBinAddr: 0x10000A908, symSize: 0x3C }
  - { offsetInCU: 0x8BA1, offset: 0x17550, size: 0x8, addend: 0x0, symName: __ZNKSt3__112basic_stringIcNS_11char_traitsIcEENS_9allocatorIcEEE8max_sizeB8ue170006Ev, symObjAddr: 0x2B1C, symBinAddr: 0x10000A944, symSize: 0xAC }
  - { offsetInCU: 0x8BF3, offset: 0x175A2, size: 0x8, addend: 0x0, symName: __ZNKSt3__112basic_stringIcNS_11char_traitsIcEENS_9allocatorIcEEE20__throw_length_errorB8ue170006Ev, symObjAddr: 0x2BC8, symBinAddr: 0x10000A9F0, symSize: 0x1C }
  - { offsetInCU: 0x8C18, offset: 0x175C7, size: 0x8, addend: 0x0, symName: __ZNSt3__112basic_stringIcNS_11char_traitsIcEENS_9allocatorIcEEE13__fits_in_ssoB8ue170006Em, symObjAddr: 0x2BE4, symBinAddr: 0x10000AA0C, symSize: 0x4C }
  - { offsetInCU: 0x8C3C, offset: 0x175EB, size: 0x8, addend: 0x0, symName: __ZNSt3__112basic_stringIcNS_11char_traitsIcEENS_9allocatorIcEEE16__set_short_sizeB8ue170006Em, symObjAddr: 0x2C30, symBinAddr: 0x10000AA58, symSize: 0x78 }
  - { offsetInCU: 0x8C70, offset: 0x1761F, size: 0x8, addend: 0x0, symName: __ZNSt3__117__compressed_pairINS_12basic_stringIcNS_11char_traitsIcEENS_9allocatorIcEEE5__repES5_EC2B8ue170006INS_18__default_init_tagERKS5_EEOT_OT0_, symObjAddr: 0x2CA8, symBinAddr: 0x10000AAD0, symSize: 0x40 }
  - { offsetInCU: 0x8CC7, offset: 0x17676, size: 0x8, addend: 0x0, symName: __ZNSt3__122__compressed_pair_elemINS_9allocatorIcEELi1ELb1EEC2B8ue170006IRKS2_vEEOT_, symObjAddr: 0x2CE8, symBinAddr: 0x10000AB10, symSize: 0x18 }
  - { offsetInCU: 0x8D08, offset: 0x176B7, size: 0x8, addend: 0x0, symName: __ZNSt3__114numeric_limitsImE3maxB8ue170006Ev, symObjAddr: 0x2D00, symBinAddr: 0x10000AB28, symSize: 0x14 }
  - { offsetInCU: 0x8D1C, offset: 0x176CB, size: 0x8, addend: 0x0, symName: __ZNSt3__123__libcpp_numeric_limitsImLb1EE3maxB8ue170006Ev, symObjAddr: 0x2D14, symBinAddr: 0x10000AB3C, symSize: 0x8 }
  - { offsetInCU: 0x8D30, offset: 0x176DF, size: 0x8, addend: 0x0, symName: __ZNSt12length_errorC1B8ue170006EPKc, symObjAddr: 0x2D80, symBinAddr: 0x10000ABA8, symSize: 0x34 }
  - { offsetInCU: 0x8D67, offset: 0x17716, size: 0x8, addend: 0x0, symName: __ZNSt12length_errorC2B8ue170006EPKc, symObjAddr: 0x2DB4, symBinAddr: 0x10000ABDC, symSize: 0x4C }
  - { offsetInCU: 0x8D9E, offset: 0x1774D, size: 0x8, addend: 0x0, symName: __ZNSt3__112basic_stringIcNS_11char_traitsIcEENS_9allocatorIcEEE18__get_long_pointerB8ue170006Ev, symObjAddr: 0x2E00, symBinAddr: 0x10000AC28, symSize: 0x28 }
  - { offsetInCU: 0x8DC3, offset: 0x17772, size: 0x8, addend: 0x0, symName: __ZNSt3__112basic_stringIcNS_11char_traitsIcEENS_9allocatorIcEEE19__get_short_pointerB8ue170006Ev, symObjAddr: 0x2E28, symBinAddr: 0x10000AC50, symSize: 0x28 }
  - { offsetInCU: 0x8DE8, offset: 0x17797, size: 0x8, addend: 0x0, symName: __ZNSt3__114pointer_traitsIPcE10pointer_toB8ue170006ERc, symObjAddr: 0x2E50, symBinAddr: 0x10000AC78, symSize: 0x14 }
  - { offsetInCU: 0x8E42, offset: 0x177F1, size: 0x8, addend: 0x0, symName: __ZNKSt3__114__copy_trivialclB8ue170006IKccLi0EEENS_4pairIPT_PT0_EES5_S5_S7_, symObjAddr: 0x3084, symBinAddr: 0x10000AEAC, symSize: 0x48 }
  - { offsetInCU: 0x8EC2, offset: 0x17871, size: 0x8, addend: 0x0, symName: __ZNSt3__14pairIPKcS2_EC1B8ue170006ERKS2_S5_, symObjAddr: 0x3200, symBinAddr: 0x10000B028, symSize: 0x3C }
  - { offsetInCU: 0x8F07, offset: 0x178B6, size: 0x8, addend: 0x0, symName: __ZNSt3__14pairIPKcS2_EC2B8ue170006ERKS2_S5_, symObjAddr: 0x323C, symBinAddr: 0x10000B064, symSize: 0x34 }
  - { offsetInCU: 0x8F4C, offset: 0x178FB, size: 0x8, addend: 0x0, symName: __ZNSt3__118__unwrap_iter_implIPKcLb1EE8__unwrapB8ue170006ES2_, symObjAddr: 0x3270, symBinAddr: 0x10000B098, symSize: 0x24 }
  - { offsetInCU: 0x8F6F, offset: 0x1791E, size: 0x8, addend: 0x0, symName: __ZNSt3__14pairIPKcPcEC1B8ue170006ERKS2_RKS3_, symObjAddr: 0x33E4, symBinAddr: 0x10000B20C, symSize: 0x3C }
  - { offsetInCU: 0x8FB4, offset: 0x17963, size: 0x8, addend: 0x0, symName: __ZNSt3__14pairIPKcPcEC2B8ue170006ERKS2_RKS3_, symObjAddr: 0x3420, symBinAddr: 0x10000B248, symSize: 0x34 }
  - { offsetInCU: 0x8FF9, offset: 0x179A8, size: 0x8, addend: 0x0, symName: __ZNSt3__118__unwrap_iter_implIPcLb1EE8__unwrapB8ue170006ES1_, symObjAddr: 0x3454, symBinAddr: 0x10000B27C, symSize: 0x24 }
  - { offsetInCU: 0x901C, offset: 0x179CB, size: 0x8, addend: 0x0, symName: __ZNSt3__118__unwrap_iter_implIPKcLb1EE8__rewrapB8ue170006ES2_S2_, symObjAddr: 0x34C8, symBinAddr: 0x10000B2F0, symSize: 0x48 }
  - { offsetInCU: 0x904D, offset: 0x179FC, size: 0x8, addend: 0x0, symName: __ZNSt3__118__unwrap_iter_implIPcLb1EE8__rewrapB8ue170006ES1_S1_, symObjAddr: 0x3510, symBinAddr: 0x10000B338, symSize: 0x48 }
  - { offsetInCU: 0x9110, offset: 0x17ABF, size: 0x8, addend: 0x0, symName: __ZNKSt3__113basic_istreamIcNS_11char_traitsIcEEE6sentrycvbB8ue170006Ev, symObjAddr: 0x3614, symBinAddr: 0x10000B43C, symSize: 0x1C }
  - { offsetInCU: 0x9135, offset: 0x17AE4, size: 0x8, addend: 0x0, symName: __ZNSt3__112basic_stringIcNS_11char_traitsIcEENS_9allocatorIcEEE5clearB8ue170006Ev, symObjAddr: 0x3630, symBinAddr: 0x10000B458, symSize: 0x78 }
  - { offsetInCU: 0x915C, offset: 0x17B0B, size: 0x8, addend: 0x0, symName: __ZNSt3__114numeric_limitsIlE3maxB8ue170006Ev, symObjAddr: 0x36A8, symBinAddr: 0x10000B4D0, symSize: 0x14 }
  - { offsetInCU: 0x9170, offset: 0x17B1F, size: 0x8, addend: 0x0, symName: __ZNSt3__115basic_streambufIcNS_11char_traitsIcEEE5sgetcB8ue170006Ev, symObjAddr: 0x36BC, symBinAddr: 0x10000B4E4, symSize: 0x70 }
  - { offsetInCU: 0x9195, offset: 0x17B44, size: 0x8, addend: 0x0, symName: __ZNSt3__111char_traitsIcE12to_char_typeB8ue170006Ei, symObjAddr: 0x372C, symBinAddr: 0x10000B554, symSize: 0x18 }
  - { offsetInCU: 0x91B8, offset: 0x17B67, size: 0x8, addend: 0x0, symName: __ZNKSt3__15ctypeIcE2isB8ue170006Ejc, symObjAddr: 0x3744, symBinAddr: 0x10000B56C, symSize: 0x7C }
  - { offsetInCU: 0x91FB, offset: 0x17BAA, size: 0x8, addend: 0x0, symName: __ZNSt3__115basic_streambufIcNS_11char_traitsIcEEE6sbumpcB8ue170006Ev, symObjAddr: 0x37C0, symBinAddr: 0x10000B5E8, symSize: 0x78 }
  - { offsetInCU: 0x9220, offset: 0x17BCF, size: 0x8, addend: 0x0, symName: __ZNSt3__18ios_base18__setstate_nothrowB8ue170006Ej, symObjAddr: 0x3838, symBinAddr: 0x10000B660, symSize: 0x64 }
  - { offsetInCU: 0x9254, offset: 0x17C03, size: 0x8, addend: 0x0, symName: __ZNKSt3__19basic_iosIcNS_11char_traitsIcEEE10exceptionsB8ue170006Ev, symObjAddr: 0x389C, symBinAddr: 0x10000B6C4, symSize: 0x24 }
  - { offsetInCU: 0x9279, offset: 0x17C28, size: 0x8, addend: 0x0, symName: __ZNSt3__111char_traitsIcE6assignB8ue170006ERcRKc, symObjAddr: 0x38C0, symBinAddr: 0x10000B6E8, symSize: 0x24 }
  - { offsetInCU: 0x92AA, offset: 0x17C59, size: 0x8, addend: 0x0, symName: __ZNSt3__123__libcpp_numeric_limitsIlLb1EE3maxB8ue170006Ev, symObjAddr: 0x38E4, symBinAddr: 0x10000B70C, symSize: 0x8 }
  - { offsetInCU: 0x92BE, offset: 0x17C6D, size: 0x8, addend: 0x0, symName: __ZNSt3__111char_traitsIcE11to_int_typeB8ue170006Ec, symObjAddr: 0x38EC, symBinAddr: 0x10000B714, symSize: 0x14 }
  - { offsetInCU: 0x92E2, offset: 0x17C91, size: 0x8, addend: 0x0, symName: __ZNKSt3__18ios_base10exceptionsB8ue170006Ev, symObjAddr: 0x3900, symBinAddr: 0x10000B728, symSize: 0x18 }
  - { offsetInCU: 0x9309, offset: 0x17CB8, size: 0x8, addend: 0x0, symName: __ZNSt3__112basic_stringIcNS_11char_traitsIcEENS_9allocatorIcEEE15__make_iteratorB8ue170006EPc, symObjAddr: 0x3918, symBinAddr: 0x10000B740, symSize: 0x30 }
  - { offsetInCU: 0x933D, offset: 0x17CEC, size: 0x8, addend: 0x0, symName: __ZNSt3__111__wrap_iterIPcEC1B8ue170006ES1_, symObjAddr: 0x3948, symBinAddr: 0x10000B770, symSize: 0x34 }
  - { offsetInCU: 0x9374, offset: 0x17D23, size: 0x8, addend: 0x0, symName: __ZNSt3__111__wrap_iterIPcEC2B8ue170006ES1_, symObjAddr: 0x397C, symBinAddr: 0x10000B7A4, symSize: 0x20 }
  - { offsetInCU: 0x93AB, offset: 0x17D5A, size: 0x8, addend: 0x0, symName: __ZNSt3__111__wrap_iterIPcEppB8ue170006Ev, symObjAddr: 0x3A5C, symBinAddr: 0x10000B884, symSize: 0x20 }
  - { offsetInCU: 0x93D0, offset: 0x17D7F, size: 0x8, addend: 0x0, symName: __ZNKSt3__111__wrap_iterIPcEdeB8ue170006Ev, symObjAddr: 0x3A7C, symBinAddr: 0x10000B8A4, symSize: 0x18 }
  - { offsetInCU: 0x93F5, offset: 0x17DA4, size: 0x8, addend: 0x0, symName: __ZNKSt3__111__wrap_iterIPcE4baseB8ue170006Ev, symObjAddr: 0x3ADC, symBinAddr: 0x10000B904, symSize: 0x18 }
  - { offsetInCU: 0x941A, offset: 0x17DC9, size: 0x8, addend: 0x0, symName: __ZNKSt3__111__wrap_iterIPcEplB8ue170006El, symObjAddr: 0x3B74, symBinAddr: 0x10000B99C, symSize: 0x3C }
  - { offsetInCU: 0x945C, offset: 0x17E0B, size: 0x8, addend: 0x0, symName: __ZNKSt3__111__wrap_iterIPKcE4baseB8ue170006Ev, symObjAddr: 0x3BB0, symBinAddr: 0x10000B9D8, symSize: 0x18 }
  - { offsetInCU: 0x9481, offset: 0x17E30, size: 0x8, addend: 0x0, symName: __ZNSt3__111__wrap_iterIPcEpLB8ue170006El, symObjAddr: 0x3BC8, symBinAddr: 0x10000B9F0, symSize: 0x28 }
  - { offsetInCU: 0x94B4, offset: 0x17E63, size: 0x8, addend: 0x0, symName: __ZNSt3__111__wrap_iterIPKcEC2B8ue170006IPcEERKNS0_IT_EEPNS_9enable_ifIXsr14is_convertibleIS6_S2_EE5valueEvE4typeE, symObjAddr: 0x3BF0, symBinAddr: 0x10000BA18, symSize: 0x40 }
  - { offsetInCU: 0x481B, offset: 0x1C774, size: 0x8, addend: 0x0, symName: __ZN13CustomerLogInC2Ev, symObjAddr: 0x0, symBinAddr: 0x10000BA58, symSize: 0x4BC }
  - { offsetInCU: 0x4894, offset: 0x1C7ED, size: 0x8, addend: 0x0, symName: __ZN17CustomerDashboardD1Ev, symObjAddr: 0xA20, symBinAddr: 0x10000BF14, symSize: 0x2C }
  - { offsetInCU: 0x48BE, offset: 0x1C817, size: 0x8, addend: 0x0, symName: __ZN13CustomerLogInC1Ev, symObjAddr: 0xA4C, symBinAddr: 0x10000BF40, symSize: 0x2C }
  - { offsetInCU: 0x48E8, offset: 0x1C841, size: 0x8, addend: 0x0, symName: __ZN17CustomerDashboardD2Ev, symObjAddr: 0xAA4, symBinAddr: 0x10000BF6C, symSize: 0x98 }
  - { offsetInCU: 0x3865, offset: 0x200DA, size: 0x8, addend: 0x0, symName: __ZNSt3__17getlineB8ue170006IcNS_11char_traitsIcEENS_9allocatorIcEEEERNS_13basic_istreamIT_T0_EES9_RNS_12basic_stringIS6_S7_T1_EE, symObjAddr: 0x814, symBinAddr: 0x10000C6F4, symSize: 0x5C }
  - { offsetInCU: 0x38BD, offset: 0x20132, size: 0x8, addend: 0x0, symName: __ZNSt3__1neB8ue170006IcNS_11char_traitsIcEENS_9allocatorIcEEEEbRKNS_12basic_stringIT_T0_T1_EESB_, symObjAddr: 0xC6C, symBinAddr: 0x10000C750, symSize: 0x34 }
  - { offsetInCU: 0x3915, offset: 0x2018A, size: 0x8, addend: 0x0, symName: __ZNSt3__17getlineB8ue170006IcNS_11char_traitsIcEENS_9allocatorIcEEEERNS_13basic_istreamIT_T0_EES9_RNS_12basic_stringIS6_S7_T1_EES6_, symObjAddr: 0x1DF8, symBinAddr: 0x10000C7B0, symSize: 0x238 }
  - { offsetInCU: 0x5FAA, offset: 0x2281F, size: 0x8, addend: 0x0, symName: __ZN18CustomerNewAccountC2Ev, symObjAddr: 0x0, symBinAddr: 0x10000C004, symSize: 0x6F0 }
  - { offsetInCU: 0x5FD4, offset: 0x22849, size: 0x8, addend: 0x0, symName: __ZN18CustomerNewAccountC1Ev, symObjAddr: 0xD0C, symBinAddr: 0x10000C784, symSize: 0x2C }
  - { offsetInCU: 0x6091, offset: 0x22906, size: 0x8, addend: 0x0, symName: __ZNSt3__111char_traitsIcE2eqEcc, symObjAddr: 0x2154, symBinAddr: 0x10000C9E8, symSize: 0x28 }
  - { offsetInCU: 0x4822, offset: 0x27162, size: 0x8, addend: 0x0, symName: __ZN14CustomerSignInC2Ev, symObjAddr: 0x0, symBinAddr: 0x10000CA10, symSize: 0x3E4 }
  - { offsetInCU: 0x488F, offset: 0x271CF, size: 0x8, addend: 0x0, symName: __ZN13CustomerLogInD1Ev, symObjAddr: 0xC90, symBinAddr: 0x10000CDF4, symSize: 0x2C }
  - { offsetInCU: 0x4923, offset: 0x27263, size: 0x8, addend: 0x0, symName: __ZN18CustomerNewAccountD1Ev, symObjAddr: 0xCBC, symBinAddr: 0x10000CE20, symSize: 0x2C }
  - { offsetInCU: 0x4982, offset: 0x272C2, size: 0x8, addend: 0x0, symName: __ZN8HomePageD1Ev, symObjAddr: 0xCE8, symBinAddr: 0x10000CE4C, symSize: 0x2C }
  - { offsetInCU: 0x49AC, offset: 0x272EC, size: 0x8, addend: 0x0, symName: __ZN14CustomerSignInC1Ev, symObjAddr: 0xD20, symBinAddr: 0x10000CE78, symSize: 0x2C }
  - { offsetInCU: 0x49D6, offset: 0x27316, size: 0x8, addend: 0x0, symName: __ZN13CustomerLogInD2Ev, symObjAddr: 0xDFC, symBinAddr: 0x10000CEA4, symSize: 0x30 }
  - { offsetInCU: 0x4A00, offset: 0x27340, size: 0x8, addend: 0x0, symName: __ZN18CustomerNewAccountD2Ev, symObjAddr: 0xE2C, symBinAddr: 0x10000CED4, symSize: 0x100 }
  - { offsetInCU: 0x4A2A, offset: 0x2736A, size: 0x8, addend: 0x0, symName: __ZN8HomePageD2Ev, symObjAddr: 0xF2C, symBinAddr: 0x10000CFD4, symSize: 0x2C }
  - { offsetInCU: 0x4858, offset: 0x2BC00, size: 0x8, addend: 0x0, symName: __ZN7DepositC2Ev, symObjAddr: 0x0, symBinAddr: 0x10000D000, symSize: 0x748 }
  - { offsetInCU: 0x4887, offset: 0x2BC2F, size: 0x8, addend: 0x0, symName: __ZN7DepositC1Ev, symObjAddr: 0x10AC, symBinAddr: 0x10000D748, symSize: 0x2C }
  - { offsetInCU: 0x4822, offset: 0x3047F, size: 0x8, addend: 0x0, symName: __ZN8HomePageC2Ev, symObjAddr: 0x0, symBinAddr: 0x10000D774, symSize: 0x3F4 }
  - { offsetInCU: 0x4881, offset: 0x304DE, size: 0x8, addend: 0x0, symName: __ZN11StaffSignInD1Ev, symObjAddr: 0xCCC, symBinAddr: 0x10000DB68, symSize: 0x2C }
  - { offsetInCU: 0x48AB, offset: 0x30508, size: 0x8, addend: 0x0, symName: __ZN8HomePageC1Ev, symObjAddr: 0xD04, symBinAddr: 0x10000DB94, symSize: 0x2C }
  - { offsetInCU: 0x48D5, offset: 0x30532, size: 0x8, addend: 0x0, symName: __ZN11StaffSignInD2Ev, symObjAddr: 0xE0C, symBinAddr: 0x10000DBC0, symSize: 0x2C }
  - { offsetInCU: 0x484A, offset: 0x34DB0, size: 0x8, addend: 0x0, symName: __ZN14StaffDashboardC2Ev, symObjAddr: 0x0, symBinAddr: 0x10000DBEC, symSize: 0x758 }
  - { offsetInCU: 0x4879, offset: 0x34DDF, size: 0x8, addend: 0x0, symName: __ZN14StaffDashboardC1Ev, symObjAddr: 0x11D8, symBinAddr: 0x10000E344, symSize: 0x2C }
  - { offsetInCU: 0x481B, offset: 0x39628, size: 0x8, addend: 0x0, symName: __ZN10StaffLogInC2Ev, symObjAddr: 0x0, symBinAddr: 0x10000E370, symSize: 0x4BC }
  - { offsetInCU: 0x4887, offset: 0x39694, size: 0x8, addend: 0x0, symName: __ZN14StaffDashboardD1Ev, symObjAddr: 0xA20, symBinAddr: 0x10000E82C, symSize: 0x2C }
  - { offsetInCU: 0x48B1, offset: 0x396BE, size: 0x8, addend: 0x0, symName: __ZN10StaffLogInC1Ev, symObjAddr: 0xA4C, symBinAddr: 0x10000E858, symSize: 0x2C }
  - { offsetInCU: 0x48DB, offset: 0x396E8, size: 0x8, addend: 0x0, symName: __ZN14StaffDashboardD2Ev, symObjAddr: 0xAA4, symBinAddr: 0x10000E884, symSize: 0x68 }
  - { offsetInCU: 0x4842, offset: 0x3DF5E, size: 0x8, addend: 0x0, symName: __ZN15StaffNewAccountC2Ev, symObjAddr: 0x0, symBinAddr: 0x10000E8EC, symSize: 0x67C }
  - { offsetInCU: 0x486C, offset: 0x3DF88, size: 0x8, addend: 0x0, symName: __ZNSt3__112basic_stringIcNS_11char_traitsIcEENS_9allocatorIcEEEaSB8ue170006EPKc, symObjAddr: 0xC60, symBinAddr: 0x10000EF68, symSize: 0x2C }
  - { offsetInCU: 0x48A0, offset: 0x3DFBC, size: 0x8, addend: 0x0, symName: __ZN15StaffNewAccountC1Ev, symObjAddr: 0xCC4, symBinAddr: 0x10000EF94, symSize: 0x2C }
  - { offsetInCU: 0x4822, offset: 0x42812, size: 0x8, addend: 0x0, symName: __ZN11StaffSignInC2Ev, symObjAddr: 0x0, symBinAddr: 0x10000EFC0, symSize: 0x3E4 }
  - { offsetInCU: 0x488F, offset: 0x4287F, size: 0x8, addend: 0x0, symName: __ZN10StaffLogInD1Ev, symObjAddr: 0xC90, symBinAddr: 0x10000F3A4, symSize: 0x2C }
  - { offsetInCU: 0x4923, offset: 0x42913, size: 0x8, addend: 0x0, symName: __ZN15StaffNewAccountD1Ev, symObjAddr: 0xCBC, symBinAddr: 0x10000F3D0, symSize: 0x2C }
  - { offsetInCU: 0x494D, offset: 0x4293D, size: 0x8, addend: 0x0, symName: __ZN11StaffSignInC1Ev, symObjAddr: 0xD20, symBinAddr: 0x10000F3FC, symSize: 0x2C }
  - { offsetInCU: 0x4977, offset: 0x42967, size: 0x8, addend: 0x0, symName: __ZN10StaffLogInD2Ev, symObjAddr: 0xDFC, symBinAddr: 0x10000F428, symSize: 0x30 }
  - { offsetInCU: 0x49A1, offset: 0x42991, size: 0x8, addend: 0x0, symName: __ZN15StaffNewAccountD2Ev, symObjAddr: 0xE2C, symBinAddr: 0x10000F458, symSize: 0x100 }
  - { offsetInCU: 0x4899, offset: 0x47263, size: 0x8, addend: 0x0, symName: __ZN8TransferC2Ev, symObjAddr: 0x0, symBinAddr: 0x10000F558, symSize: 0x1640 }
  - { offsetInCU: 0x48C8, offset: 0x47292, size: 0x8, addend: 0x0, symName: __ZN8TransferC1Ev, symObjAddr: 0x1FD0, symBinAddr: 0x100010B98, symSize: 0x2C }
  - { offsetInCU: 0x4858, offset: 0x4BB18, size: 0x8, addend: 0x0, symName: __ZN10WithdrawalC2Ev, symObjAddr: 0x0, symBinAddr: 0x100010BC4, symSize: 0x9F8 }
  - { offsetInCU: 0x4887, offset: 0x4BB47, size: 0x8, addend: 0x0, symName: __ZN10WithdrawalC1Ev, symObjAddr: 0x135C, symBinAddr: 0x1000115BC, symSize: 0x2C }
  - { offsetInCU: 0x26, offset: 0x4BB9B, size: 0x8, addend: 0x0, symName: _main, symObjAddr: 0x0, symBinAddr: 0x1000115E8, symSize: 0x3C }
  - { offsetInCU: 0x294C, offset: 0x4E4C1, size: 0x8, addend: 0x0, symName: _main, symObjAddr: 0x0, symBinAddr: 0x1000115E8, symSize: 0x3C }
...
